
VibrationDriver.elf:     file format elf32-littlearm

Sections:
Idx Name          Size      VMA       LMA       File off  Algn
  0 .isr_vector   000000c0  08000000  08000000  00010000  2**0
                  CONTENTS, ALLOC, LOAD, READONLY, DATA
  1 .text         00002308  080000c0  080000c0  000100c0  2**2
                  CONTENTS, ALLOC, LOAD, READONLY, CODE
  2 .rodata       00000040  080023c8  080023c8  000123c8  2**0
                  CONTENTS, ALLOC, LOAD, READONLY, DATA
  3 .ARM.extab    00000000  08002408  08002408  0002000c  2**0
                  CONTENTS
  4 .ARM          00000000  08002408  08002408  0002000c  2**0
                  CONTENTS
  5 .preinit_array 00000000  08002408  08002408  0002000c  2**0
                  CONTENTS, ALLOC, LOAD, DATA
  6 .init_array   00000004  08002408  08002408  00012408  2**2
                  CONTENTS, ALLOC, LOAD, DATA
  7 .fini_array   00000004  0800240c  0800240c  0001240c  2**2
                  CONTENTS, ALLOC, LOAD, DATA
  8 .data         0000000c  20000000  08002410  00020000  2**2
                  CONTENTS, ALLOC, LOAD, DATA
  9 .bss          000007e0  2000000c  0800241c  0002000c  2**2
                  ALLOC
 10 ._user_heap_stack 00000604  200007ec  0800241c  000207ec  2**0
                  ALLOC
 11 .ARM.attributes 00000028  00000000  00000000  0002000c  2**0
                  CONTENTS, READONLY
 12 .comment      00000053  00000000  00000000  00020034  2**0
                  CONTENTS, READONLY
 13 .debug_frame  000000d4  00000000  00000000  00020088  2**2
                  CONTENTS, READONLY, DEBUGGING, OCTETS

Disassembly of section .text:

080000c0 <__do_global_dtors_aux>:
 80000c0:	b510      	push	{r4, lr}
 80000c2:	4c06      	ldr	r4, [pc, #24]	; (80000dc <__do_global_dtors_aux+0x1c>)
 80000c4:	7823      	ldrb	r3, [r4, #0]
 80000c6:	2b00      	cmp	r3, #0
 80000c8:	d107      	bne.n	80000da <__do_global_dtors_aux+0x1a>
 80000ca:	4b05      	ldr	r3, [pc, #20]	; (80000e0 <__do_global_dtors_aux+0x20>)
 80000cc:	2b00      	cmp	r3, #0
 80000ce:	d002      	beq.n	80000d6 <__do_global_dtors_aux+0x16>
 80000d0:	4804      	ldr	r0, [pc, #16]	; (80000e4 <__do_global_dtors_aux+0x24>)
 80000d2:	e000      	b.n	80000d6 <__do_global_dtors_aux+0x16>
 80000d4:	bf00      	nop
 80000d6:	2301      	movs	r3, #1
 80000d8:	7023      	strb	r3, [r4, #0]
 80000da:	bd10      	pop	{r4, pc}
 80000dc:	2000000c 	.word	0x2000000c
 80000e0:	00000000 	.word	0x00000000
 80000e4:	080023b0 	.word	0x080023b0

080000e8 <frame_dummy>:
 80000e8:	4b04      	ldr	r3, [pc, #16]	; (80000fc <frame_dummy+0x14>)
 80000ea:	b510      	push	{r4, lr}
 80000ec:	2b00      	cmp	r3, #0
 80000ee:	d003      	beq.n	80000f8 <frame_dummy+0x10>
 80000f0:	4903      	ldr	r1, [pc, #12]	; (8000100 <frame_dummy+0x18>)
 80000f2:	4804      	ldr	r0, [pc, #16]	; (8000104 <frame_dummy+0x1c>)
 80000f4:	e000      	b.n	80000f8 <frame_dummy+0x10>
 80000f6:	bf00      	nop
 80000f8:	bd10      	pop	{r4, pc}
 80000fa:	46c0      	nop			; (mov r8, r8)
 80000fc:	00000000 	.word	0x00000000
 8000100:	20000010 	.word	0x20000010
 8000104:	080023b0 	.word	0x080023b0

08000108 <strcmp>:
 8000108:	7802      	ldrb	r2, [r0, #0]
 800010a:	780b      	ldrb	r3, [r1, #0]
 800010c:	2a00      	cmp	r2, #0
 800010e:	d003      	beq.n	8000118 <strcmp+0x10>
 8000110:	3001      	adds	r0, #1
 8000112:	3101      	adds	r1, #1
 8000114:	429a      	cmp	r2, r3
 8000116:	d0f7      	beq.n	8000108 <strcmp>
 8000118:	1ad0      	subs	r0, r2, r3
 800011a:	4770      	bx	lr

0800011c <__udivsi3>:
 800011c:	2200      	movs	r2, #0
 800011e:	0843      	lsrs	r3, r0, #1
 8000120:	428b      	cmp	r3, r1
 8000122:	d374      	bcc.n	800020e <__udivsi3+0xf2>
 8000124:	0903      	lsrs	r3, r0, #4
 8000126:	428b      	cmp	r3, r1
 8000128:	d35f      	bcc.n	80001ea <__udivsi3+0xce>
 800012a:	0a03      	lsrs	r3, r0, #8
 800012c:	428b      	cmp	r3, r1
 800012e:	d344      	bcc.n	80001ba <__udivsi3+0x9e>
 8000130:	0b03      	lsrs	r3, r0, #12
 8000132:	428b      	cmp	r3, r1
 8000134:	d328      	bcc.n	8000188 <__udivsi3+0x6c>
 8000136:	0c03      	lsrs	r3, r0, #16
 8000138:	428b      	cmp	r3, r1
 800013a:	d30d      	bcc.n	8000158 <__udivsi3+0x3c>
 800013c:	22ff      	movs	r2, #255	; 0xff
 800013e:	0209      	lsls	r1, r1, #8
 8000140:	ba12      	rev	r2, r2
 8000142:	0c03      	lsrs	r3, r0, #16
 8000144:	428b      	cmp	r3, r1
 8000146:	d302      	bcc.n	800014e <__udivsi3+0x32>
 8000148:	1212      	asrs	r2, r2, #8
 800014a:	0209      	lsls	r1, r1, #8
 800014c:	d065      	beq.n	800021a <__udivsi3+0xfe>
 800014e:	0b03      	lsrs	r3, r0, #12
 8000150:	428b      	cmp	r3, r1
 8000152:	d319      	bcc.n	8000188 <__udivsi3+0x6c>
 8000154:	e000      	b.n	8000158 <__udivsi3+0x3c>
 8000156:	0a09      	lsrs	r1, r1, #8
 8000158:	0bc3      	lsrs	r3, r0, #15
 800015a:	428b      	cmp	r3, r1
 800015c:	d301      	bcc.n	8000162 <__udivsi3+0x46>
 800015e:	03cb      	lsls	r3, r1, #15
 8000160:	1ac0      	subs	r0, r0, r3
 8000162:	4152      	adcs	r2, r2
 8000164:	0b83      	lsrs	r3, r0, #14
 8000166:	428b      	cmp	r3, r1
 8000168:	d301      	bcc.n	800016e <__udivsi3+0x52>
 800016a:	038b      	lsls	r3, r1, #14
 800016c:	1ac0      	subs	r0, r0, r3
 800016e:	4152      	adcs	r2, r2
 8000170:	0b43      	lsrs	r3, r0, #13
 8000172:	428b      	cmp	r3, r1
 8000174:	d301      	bcc.n	800017a <__udivsi3+0x5e>
 8000176:	034b      	lsls	r3, r1, #13
 8000178:	1ac0      	subs	r0, r0, r3
 800017a:	4152      	adcs	r2, r2
 800017c:	0b03      	lsrs	r3, r0, #12
 800017e:	428b      	cmp	r3, r1
 8000180:	d301      	bcc.n	8000186 <__udivsi3+0x6a>
 8000182:	030b      	lsls	r3, r1, #12
 8000184:	1ac0      	subs	r0, r0, r3
 8000186:	4152      	adcs	r2, r2
 8000188:	0ac3      	lsrs	r3, r0, #11
 800018a:	428b      	cmp	r3, r1
 800018c:	d301      	bcc.n	8000192 <__udivsi3+0x76>
 800018e:	02cb      	lsls	r3, r1, #11
 8000190:	1ac0      	subs	r0, r0, r3
 8000192:	4152      	adcs	r2, r2
 8000194:	0a83      	lsrs	r3, r0, #10
 8000196:	428b      	cmp	r3, r1
 8000198:	d301      	bcc.n	800019e <__udivsi3+0x82>
 800019a:	028b      	lsls	r3, r1, #10
 800019c:	1ac0      	subs	r0, r0, r3
 800019e:	4152      	adcs	r2, r2
 80001a0:	0a43      	lsrs	r3, r0, #9
 80001a2:	428b      	cmp	r3, r1
 80001a4:	d301      	bcc.n	80001aa <__udivsi3+0x8e>
 80001a6:	024b      	lsls	r3, r1, #9
 80001a8:	1ac0      	subs	r0, r0, r3
 80001aa:	4152      	adcs	r2, r2
 80001ac:	0a03      	lsrs	r3, r0, #8
 80001ae:	428b      	cmp	r3, r1
 80001b0:	d301      	bcc.n	80001b6 <__udivsi3+0x9a>
 80001b2:	020b      	lsls	r3, r1, #8
 80001b4:	1ac0      	subs	r0, r0, r3
 80001b6:	4152      	adcs	r2, r2
 80001b8:	d2cd      	bcs.n	8000156 <__udivsi3+0x3a>
 80001ba:	09c3      	lsrs	r3, r0, #7
 80001bc:	428b      	cmp	r3, r1
 80001be:	d301      	bcc.n	80001c4 <__udivsi3+0xa8>
 80001c0:	01cb      	lsls	r3, r1, #7
 80001c2:	1ac0      	subs	r0, r0, r3
 80001c4:	4152      	adcs	r2, r2
 80001c6:	0983      	lsrs	r3, r0, #6
 80001c8:	428b      	cmp	r3, r1
 80001ca:	d301      	bcc.n	80001d0 <__udivsi3+0xb4>
 80001cc:	018b      	lsls	r3, r1, #6
 80001ce:	1ac0      	subs	r0, r0, r3
 80001d0:	4152      	adcs	r2, r2
 80001d2:	0943      	lsrs	r3, r0, #5
 80001d4:	428b      	cmp	r3, r1
 80001d6:	d301      	bcc.n	80001dc <__udivsi3+0xc0>
 80001d8:	014b      	lsls	r3, r1, #5
 80001da:	1ac0      	subs	r0, r0, r3
 80001dc:	4152      	adcs	r2, r2
 80001de:	0903      	lsrs	r3, r0, #4
 80001e0:	428b      	cmp	r3, r1
 80001e2:	d301      	bcc.n	80001e8 <__udivsi3+0xcc>
 80001e4:	010b      	lsls	r3, r1, #4
 80001e6:	1ac0      	subs	r0, r0, r3
 80001e8:	4152      	adcs	r2, r2
 80001ea:	08c3      	lsrs	r3, r0, #3
 80001ec:	428b      	cmp	r3, r1
 80001ee:	d301      	bcc.n	80001f4 <__udivsi3+0xd8>
 80001f0:	00cb      	lsls	r3, r1, #3
 80001f2:	1ac0      	subs	r0, r0, r3
 80001f4:	4152      	adcs	r2, r2
 80001f6:	0883      	lsrs	r3, r0, #2
 80001f8:	428b      	cmp	r3, r1
 80001fa:	d301      	bcc.n	8000200 <__udivsi3+0xe4>
 80001fc:	008b      	lsls	r3, r1, #2
 80001fe:	1ac0      	subs	r0, r0, r3
 8000200:	4152      	adcs	r2, r2
 8000202:	0843      	lsrs	r3, r0, #1
 8000204:	428b      	cmp	r3, r1
 8000206:	d301      	bcc.n	800020c <__udivsi3+0xf0>
 8000208:	004b      	lsls	r3, r1, #1
 800020a:	1ac0      	subs	r0, r0, r3
 800020c:	4152      	adcs	r2, r2
 800020e:	1a41      	subs	r1, r0, r1
 8000210:	d200      	bcs.n	8000214 <__udivsi3+0xf8>
 8000212:	4601      	mov	r1, r0
 8000214:	4152      	adcs	r2, r2
 8000216:	4610      	mov	r0, r2
 8000218:	4770      	bx	lr
 800021a:	e7ff      	b.n	800021c <__udivsi3+0x100>
 800021c:	b501      	push	{r0, lr}
 800021e:	2000      	movs	r0, #0
 8000220:	f000 f8f0 	bl	8000404 <__aeabi_idiv0>
 8000224:	bd02      	pop	{r1, pc}
 8000226:	46c0      	nop			; (mov r8, r8)

08000228 <__aeabi_uidivmod>:
 8000228:	2900      	cmp	r1, #0
 800022a:	d0f7      	beq.n	800021c <__udivsi3+0x100>
 800022c:	e776      	b.n	800011c <__udivsi3>
 800022e:	4770      	bx	lr

08000230 <__divsi3>:
 8000230:	4603      	mov	r3, r0
 8000232:	430b      	orrs	r3, r1
 8000234:	d47f      	bmi.n	8000336 <__divsi3+0x106>
 8000236:	2200      	movs	r2, #0
 8000238:	0843      	lsrs	r3, r0, #1
 800023a:	428b      	cmp	r3, r1
 800023c:	d374      	bcc.n	8000328 <__divsi3+0xf8>
 800023e:	0903      	lsrs	r3, r0, #4
 8000240:	428b      	cmp	r3, r1
 8000242:	d35f      	bcc.n	8000304 <__divsi3+0xd4>
 8000244:	0a03      	lsrs	r3, r0, #8
 8000246:	428b      	cmp	r3, r1
 8000248:	d344      	bcc.n	80002d4 <__divsi3+0xa4>
 800024a:	0b03      	lsrs	r3, r0, #12
 800024c:	428b      	cmp	r3, r1
 800024e:	d328      	bcc.n	80002a2 <__divsi3+0x72>
 8000250:	0c03      	lsrs	r3, r0, #16
 8000252:	428b      	cmp	r3, r1
 8000254:	d30d      	bcc.n	8000272 <__divsi3+0x42>
 8000256:	22ff      	movs	r2, #255	; 0xff
 8000258:	0209      	lsls	r1, r1, #8
 800025a:	ba12      	rev	r2, r2
 800025c:	0c03      	lsrs	r3, r0, #16
 800025e:	428b      	cmp	r3, r1
 8000260:	d302      	bcc.n	8000268 <__divsi3+0x38>
 8000262:	1212      	asrs	r2, r2, #8
 8000264:	0209      	lsls	r1, r1, #8
 8000266:	d065      	beq.n	8000334 <__divsi3+0x104>
 8000268:	0b03      	lsrs	r3, r0, #12
 800026a:	428b      	cmp	r3, r1
 800026c:	d319      	bcc.n	80002a2 <__divsi3+0x72>
 800026e:	e000      	b.n	8000272 <__divsi3+0x42>
 8000270:	0a09      	lsrs	r1, r1, #8
 8000272:	0bc3      	lsrs	r3, r0, #15
 8000274:	428b      	cmp	r3, r1
 8000276:	d301      	bcc.n	800027c <__divsi3+0x4c>
 8000278:	03cb      	lsls	r3, r1, #15
 800027a:	1ac0      	subs	r0, r0, r3
 800027c:	4152      	adcs	r2, r2
 800027e:	0b83      	lsrs	r3, r0, #14
 8000280:	428b      	cmp	r3, r1
 8000282:	d301      	bcc.n	8000288 <__divsi3+0x58>
 8000284:	038b      	lsls	r3, r1, #14
 8000286:	1ac0      	subs	r0, r0, r3
 8000288:	4152      	adcs	r2, r2
 800028a:	0b43      	lsrs	r3, r0, #13
 800028c:	428b      	cmp	r3, r1
 800028e:	d301      	bcc.n	8000294 <__divsi3+0x64>
 8000290:	034b      	lsls	r3, r1, #13
 8000292:	1ac0      	subs	r0, r0, r3
 8000294:	4152      	adcs	r2, r2
 8000296:	0b03      	lsrs	r3, r0, #12
 8000298:	428b      	cmp	r3, r1
 800029a:	d301      	bcc.n	80002a0 <__divsi3+0x70>
 800029c:	030b      	lsls	r3, r1, #12
 800029e:	1ac0      	subs	r0, r0, r3
 80002a0:	4152      	adcs	r2, r2
 80002a2:	0ac3      	lsrs	r3, r0, #11
 80002a4:	428b      	cmp	r3, r1
 80002a6:	d301      	bcc.n	80002ac <__divsi3+0x7c>
 80002a8:	02cb      	lsls	r3, r1, #11
 80002aa:	1ac0      	subs	r0, r0, r3
 80002ac:	4152      	adcs	r2, r2
 80002ae:	0a83      	lsrs	r3, r0, #10
 80002b0:	428b      	cmp	r3, r1
 80002b2:	d301      	bcc.n	80002b8 <__divsi3+0x88>
 80002b4:	028b      	lsls	r3, r1, #10
 80002b6:	1ac0      	subs	r0, r0, r3
 80002b8:	4152      	adcs	r2, r2
 80002ba:	0a43      	lsrs	r3, r0, #9
 80002bc:	428b      	cmp	r3, r1
 80002be:	d301      	bcc.n	80002c4 <__divsi3+0x94>
 80002c0:	024b      	lsls	r3, r1, #9
 80002c2:	1ac0      	subs	r0, r0, r3
 80002c4:	4152      	adcs	r2, r2
 80002c6:	0a03      	lsrs	r3, r0, #8
 80002c8:	428b      	cmp	r3, r1
 80002ca:	d301      	bcc.n	80002d0 <__divsi3+0xa0>
 80002cc:	020b      	lsls	r3, r1, #8
 80002ce:	1ac0      	subs	r0, r0, r3
 80002d0:	4152      	adcs	r2, r2
 80002d2:	d2cd      	bcs.n	8000270 <__divsi3+0x40>
 80002d4:	09c3      	lsrs	r3, r0, #7
 80002d6:	428b      	cmp	r3, r1
 80002d8:	d301      	bcc.n	80002de <__divsi3+0xae>
 80002da:	01cb      	lsls	r3, r1, #7
 80002dc:	1ac0      	subs	r0, r0, r3
 80002de:	4152      	adcs	r2, r2
 80002e0:	0983      	lsrs	r3, r0, #6
 80002e2:	428b      	cmp	r3, r1
 80002e4:	d301      	bcc.n	80002ea <__divsi3+0xba>
 80002e6:	018b      	lsls	r3, r1, #6
 80002e8:	1ac0      	subs	r0, r0, r3
 80002ea:	4152      	adcs	r2, r2
 80002ec:	0943      	lsrs	r3, r0, #5
 80002ee:	428b      	cmp	r3, r1
 80002f0:	d301      	bcc.n	80002f6 <__divsi3+0xc6>
 80002f2:	014b      	lsls	r3, r1, #5
 80002f4:	1ac0      	subs	r0, r0, r3
 80002f6:	4152      	adcs	r2, r2
 80002f8:	0903      	lsrs	r3, r0, #4
 80002fa:	428b      	cmp	r3, r1
 80002fc:	d301      	bcc.n	8000302 <__divsi3+0xd2>
 80002fe:	010b      	lsls	r3, r1, #4
 8000300:	1ac0      	subs	r0, r0, r3
 8000302:	4152      	adcs	r2, r2
 8000304:	08c3      	lsrs	r3, r0, #3
 8000306:	428b      	cmp	r3, r1
 8000308:	d301      	bcc.n	800030e <__divsi3+0xde>
 800030a:	00cb      	lsls	r3, r1, #3
 800030c:	1ac0      	subs	r0, r0, r3
 800030e:	4152      	adcs	r2, r2
 8000310:	0883      	lsrs	r3, r0, #2
 8000312:	428b      	cmp	r3, r1
 8000314:	d301      	bcc.n	800031a <__divsi3+0xea>
 8000316:	008b      	lsls	r3, r1, #2
 8000318:	1ac0      	subs	r0, r0, r3
 800031a:	4152      	adcs	r2, r2
 800031c:	0843      	lsrs	r3, r0, #1
 800031e:	428b      	cmp	r3, r1
 8000320:	d301      	bcc.n	8000326 <__divsi3+0xf6>
 8000322:	004b      	lsls	r3, r1, #1
 8000324:	1ac0      	subs	r0, r0, r3
 8000326:	4152      	adcs	r2, r2
 8000328:	1a41      	subs	r1, r0, r1
 800032a:	d200      	bcs.n	800032e <__divsi3+0xfe>
 800032c:	4601      	mov	r1, r0
 800032e:	4152      	adcs	r2, r2
 8000330:	4610      	mov	r0, r2
 8000332:	4770      	bx	lr
 8000334:	e05d      	b.n	80003f2 <__divsi3+0x1c2>
 8000336:	0fca      	lsrs	r2, r1, #31
 8000338:	d000      	beq.n	800033c <__divsi3+0x10c>
 800033a:	4249      	negs	r1, r1
 800033c:	1003      	asrs	r3, r0, #32
 800033e:	d300      	bcc.n	8000342 <__divsi3+0x112>
 8000340:	4240      	negs	r0, r0
 8000342:	4053      	eors	r3, r2
 8000344:	2200      	movs	r2, #0
 8000346:	469c      	mov	ip, r3
 8000348:	0903      	lsrs	r3, r0, #4
 800034a:	428b      	cmp	r3, r1
 800034c:	d32d      	bcc.n	80003aa <__divsi3+0x17a>
 800034e:	0a03      	lsrs	r3, r0, #8
 8000350:	428b      	cmp	r3, r1
 8000352:	d312      	bcc.n	800037a <__divsi3+0x14a>
 8000354:	22fc      	movs	r2, #252	; 0xfc
 8000356:	0189      	lsls	r1, r1, #6
 8000358:	ba12      	rev	r2, r2
 800035a:	0a03      	lsrs	r3, r0, #8
 800035c:	428b      	cmp	r3, r1
 800035e:	d30c      	bcc.n	800037a <__divsi3+0x14a>
 8000360:	0189      	lsls	r1, r1, #6
 8000362:	1192      	asrs	r2, r2, #6
 8000364:	428b      	cmp	r3, r1
 8000366:	d308      	bcc.n	800037a <__divsi3+0x14a>
 8000368:	0189      	lsls	r1, r1, #6
 800036a:	1192      	asrs	r2, r2, #6
 800036c:	428b      	cmp	r3, r1
 800036e:	d304      	bcc.n	800037a <__divsi3+0x14a>
 8000370:	0189      	lsls	r1, r1, #6
 8000372:	d03a      	beq.n	80003ea <__divsi3+0x1ba>
 8000374:	1192      	asrs	r2, r2, #6
 8000376:	e000      	b.n	800037a <__divsi3+0x14a>
 8000378:	0989      	lsrs	r1, r1, #6
 800037a:	09c3      	lsrs	r3, r0, #7
 800037c:	428b      	cmp	r3, r1
 800037e:	d301      	bcc.n	8000384 <__divsi3+0x154>
 8000380:	01cb      	lsls	r3, r1, #7
 8000382:	1ac0      	subs	r0, r0, r3
 8000384:	4152      	adcs	r2, r2
 8000386:	0983      	lsrs	r3, r0, #6
 8000388:	428b      	cmp	r3, r1
 800038a:	d301      	bcc.n	8000390 <__divsi3+0x160>
 800038c:	018b      	lsls	r3, r1, #6
 800038e:	1ac0      	subs	r0, r0, r3
 8000390:	4152      	adcs	r2, r2
 8000392:	0943      	lsrs	r3, r0, #5
 8000394:	428b      	cmp	r3, r1
 8000396:	d301      	bcc.n	800039c <__divsi3+0x16c>
 8000398:	014b      	lsls	r3, r1, #5
 800039a:	1ac0      	subs	r0, r0, r3
 800039c:	4152      	adcs	r2, r2
 800039e:	0903      	lsrs	r3, r0, #4
 80003a0:	428b      	cmp	r3, r1
 80003a2:	d301      	bcc.n	80003a8 <__divsi3+0x178>
 80003a4:	010b      	lsls	r3, r1, #4
 80003a6:	1ac0      	subs	r0, r0, r3
 80003a8:	4152      	adcs	r2, r2
 80003aa:	08c3      	lsrs	r3, r0, #3
 80003ac:	428b      	cmp	r3, r1
 80003ae:	d301      	bcc.n	80003b4 <__divsi3+0x184>
 80003b0:	00cb      	lsls	r3, r1, #3
 80003b2:	1ac0      	subs	r0, r0, r3
 80003b4:	4152      	adcs	r2, r2
 80003b6:	0883      	lsrs	r3, r0, #2
 80003b8:	428b      	cmp	r3, r1
 80003ba:	d301      	bcc.n	80003c0 <__divsi3+0x190>
 80003bc:	008b      	lsls	r3, r1, #2
 80003be:	1ac0      	subs	r0, r0, r3
 80003c0:	4152      	adcs	r2, r2
 80003c2:	d2d9      	bcs.n	8000378 <__divsi3+0x148>
 80003c4:	0843      	lsrs	r3, r0, #1
 80003c6:	428b      	cmp	r3, r1
 80003c8:	d301      	bcc.n	80003ce <__divsi3+0x19e>
 80003ca:	004b      	lsls	r3, r1, #1
 80003cc:	1ac0      	subs	r0, r0, r3
 80003ce:	4152      	adcs	r2, r2
 80003d0:	1a41      	subs	r1, r0, r1
 80003d2:	d200      	bcs.n	80003d6 <__divsi3+0x1a6>
 80003d4:	4601      	mov	r1, r0
 80003d6:	4663      	mov	r3, ip
 80003d8:	4152      	adcs	r2, r2
 80003da:	105b      	asrs	r3, r3, #1
 80003dc:	4610      	mov	r0, r2
 80003de:	d301      	bcc.n	80003e4 <__divsi3+0x1b4>
 80003e0:	4240      	negs	r0, r0
 80003e2:	2b00      	cmp	r3, #0
 80003e4:	d500      	bpl.n	80003e8 <__divsi3+0x1b8>
 80003e6:	4249      	negs	r1, r1
 80003e8:	4770      	bx	lr
 80003ea:	4663      	mov	r3, ip
 80003ec:	105b      	asrs	r3, r3, #1
 80003ee:	d300      	bcc.n	80003f2 <__divsi3+0x1c2>
 80003f0:	4240      	negs	r0, r0
 80003f2:	b501      	push	{r0, lr}
 80003f4:	2000      	movs	r0, #0
 80003f6:	f000 f805 	bl	8000404 <__aeabi_idiv0>
 80003fa:	bd02      	pop	{r1, pc}

080003fc <__aeabi_idivmod>:
 80003fc:	2900      	cmp	r1, #0
 80003fe:	d0f8      	beq.n	80003f2 <__divsi3+0x1c2>
 8000400:	e716      	b.n	8000230 <__divsi3>
 8000402:	4770      	bx	lr

08000404 <__aeabi_idiv0>:
 8000404:	4770      	bx	lr
 8000406:	46c0      	nop			; (mov r8, r8)

08000408 <setFreq.part.0>:
 8000408:	b570      	push	{r4, r5, r6, lr}
 800040a:	000e      	movs	r6, r1
 800040c:	4c15      	ldr	r4, [pc, #84]	; (8000464 <setFreq.part.0+0x5c>)
 800040e:	0005      	movs	r5, r0
 8000410:	0020      	movs	r0, r4
 8000412:	f001 fc01 	bl	8001c18 <HAL_TIM_Base_Stop_IT>
 8000416:	4b14      	ldr	r3, [pc, #80]	; (8000468 <setFreq.part.0+0x60>)
 8000418:	681b      	ldr	r3, [r3, #0]
 800041a:	635e      	str	r6, [r3, #52]	; 0x34
 800041c:	2d00      	cmp	r5, #0
 800041e:	d106      	bne.n	800042e <setFreq.part.0+0x26>
 8000420:	2090      	movs	r0, #144	; 0x90
 8000422:	002a      	movs	r2, r5
 8000424:	2103      	movs	r1, #3
 8000426:	05c0      	lsls	r0, r0, #23
 8000428:	f000 fdae 	bl	8000f88 <HAL_GPIO_WritePin>
 800042c:	bd70      	pop	{r4, r5, r6, pc}
 800042e:	2105      	movs	r1, #5
 8000430:	480e      	ldr	r0, [pc, #56]	; (800046c <setFreq.part.0+0x64>)
 8000432:	4369      	muls	r1, r5
 8000434:	f7ff fefc 	bl	8000230 <__divsi3>
 8000438:	6823      	ldr	r3, [r4, #0]
 800043a:	3801      	subs	r0, #1
 800043c:	b280      	uxth	r0, r0
 800043e:	62d8      	str	r0, [r3, #44]	; 0x2c
 8000440:	0840      	lsrs	r0, r0, #1
 8000442:	6358      	str	r0, [r3, #52]	; 0x34
 8000444:	2090      	movs	r0, #144	; 0x90
 8000446:	2200      	movs	r2, #0
 8000448:	2102      	movs	r1, #2
 800044a:	05c0      	lsls	r0, r0, #23
 800044c:	f000 fd9c 	bl	8000f88 <HAL_GPIO_WritePin>
 8000450:	2201      	movs	r2, #1
 8000452:	2090      	movs	r0, #144	; 0x90
 8000454:	0011      	movs	r1, r2
 8000456:	05c0      	lsls	r0, r0, #23
 8000458:	f000 fd96 	bl	8000f88 <HAL_GPIO_WritePin>
 800045c:	0020      	movs	r0, r4
 800045e:	f001 fbb3 	bl	8001bc8 <HAL_TIM_Base_Start_IT>
 8000462:	e7e3      	b.n	800042c <setFreq.part.0+0x24>
 8000464:	200007a0 	.word	0x200007a0
 8000468:	200000c8 	.word	0x200000c8
 800046c:	02dc6c00 	.word	0x02dc6c00

08000470 <HAL_TIM_PeriodElapsedCallback>:
 8000470:	4a2f      	ldr	r2, [pc, #188]	; (8000530 <HAL_TIM_PeriodElapsedCallback+0xc0>)
 8000472:	b5f8      	push	{r3, r4, r5, r6, r7, lr}
 8000474:	6812      	ldr	r2, [r2, #0]
 8000476:	6803      	ldr	r3, [r0, #0]
 8000478:	2103      	movs	r1, #3
 800047a:	4293      	cmp	r3, r2
 800047c:	d004      	beq.n	8000488 <HAL_TIM_PeriodElapsedCallback+0x18>
 800047e:	4a2d      	ldr	r2, [pc, #180]	; (8000534 <HAL_TIM_PeriodElapsedCallback+0xc4>)
 8000480:	6812      	ldr	r2, [r2, #0]
 8000482:	4293      	cmp	r3, r2
 8000484:	d105      	bne.n	8000492 <HAL_TIM_PeriodElapsedCallback+0x22>
 8000486:	2118      	movs	r1, #24
 8000488:	2090      	movs	r0, #144	; 0x90
 800048a:	05c0      	lsls	r0, r0, #23
 800048c:	f000 fd82 	bl	8000f94 <HAL_GPIO_TogglePin>
 8000490:	bdf8      	pop	{r3, r4, r5, r6, r7, pc}
 8000492:	4a29      	ldr	r2, [pc, #164]	; (8000538 <HAL_TIM_PeriodElapsedCallback+0xc8>)
 8000494:	6812      	ldr	r2, [r2, #0]
 8000496:	4293      	cmp	r3, r2
 8000498:	d147      	bne.n	800052a <HAL_TIM_PeriodElapsedCallback+0xba>
 800049a:	4a28      	ldr	r2, [pc, #160]	; (800053c <HAL_TIM_PeriodElapsedCallback+0xcc>)
 800049c:	4b28      	ldr	r3, [pc, #160]	; (8000540 <HAL_TIM_PeriodElapsedCallback+0xd0>)
 800049e:	7811      	ldrb	r1, [r2, #0]
 80004a0:	781b      	ldrb	r3, [r3, #0]
 80004a2:	4299      	cmp	r1, r3
 80004a4:	d0f4      	beq.n	8000490 <HAL_TIM_PeriodElapsedCallback+0x20>
 80004a6:	26c8      	movs	r6, #200	; 0xc8
 80004a8:	4b26      	ldr	r3, [pc, #152]	; (8000544 <HAL_TIM_PeriodElapsedCallback+0xd4>)
 80004aa:	7811      	ldrb	r1, [r2, #0]
 80004ac:	881c      	ldrh	r4, [r3, #0]
 80004ae:	0076      	lsls	r6, r6, #1
 80004b0:	1c60      	adds	r0, r4, #1
 80004b2:	4371      	muls	r1, r6
 80004b4:	b280      	uxth	r0, r0
 80004b6:	8018      	strh	r0, [r3, #0]
 80004b8:	4823      	ldr	r0, [pc, #140]	; (8000548 <HAL_TIM_PeriodElapsedCallback+0xd8>)
 80004ba:	1841      	adds	r1, r0, r1
 80004bc:	5d0d      	ldrb	r5, [r1, r4]
 80004be:	7811      	ldrb	r1, [r2, #0]
 80004c0:	881c      	ldrh	r4, [r3, #0]
 80004c2:	4371      	muls	r1, r6
 80004c4:	1c67      	adds	r7, r4, #1
 80004c6:	b2bf      	uxth	r7, r7
 80004c8:	801f      	strh	r7, [r3, #0]
 80004ca:	1840      	adds	r0, r0, r1
 80004cc:	8819      	ldrh	r1, [r3, #0]
 80004ce:	5d04      	ldrb	r4, [r0, r4]
 80004d0:	42b1      	cmp	r1, r6
 80004d2:	d306      	bcc.n	80004e2 <HAL_TIM_PeriodElapsedCallback+0x72>
 80004d4:	2100      	movs	r1, #0
 80004d6:	8019      	strh	r1, [r3, #0]
 80004d8:	7813      	ldrb	r3, [r2, #0]
 80004da:	3103      	adds	r1, #3
 80004dc:	3301      	adds	r3, #1
 80004de:	400b      	ands	r3, r1
 80004e0:	7013      	strb	r3, [r2, #0]
 80004e2:	2090      	movs	r0, #144	; 0x90
 80004e4:	09ea      	lsrs	r2, r5, #7
 80004e6:	2102      	movs	r1, #2
 80004e8:	05c0      	lsls	r0, r0, #23
 80004ea:	f000 fd4d 	bl	8000f88 <HAL_GPIO_WritePin>
 80004ee:	43ea      	mvns	r2, r5
 80004f0:	2090      	movs	r0, #144	; 0x90
 80004f2:	b2d2      	uxtb	r2, r2
 80004f4:	2101      	movs	r1, #1
 80004f6:	09d2      	lsrs	r2, r2, #7
 80004f8:	05c0      	lsls	r0, r0, #23
 80004fa:	f000 fd45 	bl	8000f88 <HAL_GPIO_WritePin>
 80004fe:	2090      	movs	r0, #144	; 0x90
 8000500:	09e2      	lsrs	r2, r4, #7
 8000502:	2108      	movs	r1, #8
 8000504:	05c0      	lsls	r0, r0, #23
 8000506:	f000 fd3f 	bl	8000f88 <HAL_GPIO_WritePin>
 800050a:	43e2      	mvns	r2, r4
 800050c:	2090      	movs	r0, #144	; 0x90
 800050e:	b2d2      	uxtb	r2, r2
 8000510:	09d2      	lsrs	r2, r2, #7
 8000512:	2110      	movs	r1, #16
 8000514:	05c0      	lsls	r0, r0, #23
 8000516:	f000 fd37 	bl	8000f88 <HAL_GPIO_WritePin>
 800051a:	227f      	movs	r2, #127	; 0x7f
 800051c:	4b0b      	ldr	r3, [pc, #44]	; (800054c <HAL_TIM_PeriodElapsedCallback+0xdc>)
 800051e:	4015      	ands	r5, r2
 8000520:	681b      	ldr	r3, [r3, #0]
 8000522:	4014      	ands	r4, r2
 8000524:	635d      	str	r5, [r3, #52]	; 0x34
 8000526:	639c      	str	r4, [r3, #56]	; 0x38
 8000528:	e7b2      	b.n	8000490 <HAL_TIM_PeriodElapsedCallback+0x20>
 800052a:	b672      	cpsid	i
 800052c:	e7fe      	b.n	800052c <HAL_TIM_PeriodElapsedCallback+0xbc>
 800052e:	46c0      	nop			; (mov r8, r8)
 8000530:	200007a0 	.word	0x200007a0
 8000534:	20000078 	.word	0x20000078
 8000538:	20000754 	.word	0x20000754
 800053c:	20000751 	.word	0x20000751
 8000540:	20000750 	.word	0x20000750
 8000544:	2000079c 	.word	0x2000079c
 8000548:	20000110 	.word	0x20000110
 800054c:	200000c8 	.word	0x200000c8

08000550 <setFreq>:
 8000550:	b570      	push	{r4, r5, r6, lr}
 8000552:	000d      	movs	r5, r1
 8000554:	0016      	movs	r6, r2
 8000556:	2800      	cmp	r0, #0
 8000558:	d104      	bne.n	8000564 <setFreq+0x14>
 800055a:	0011      	movs	r1, r2
 800055c:	0028      	movs	r0, r5
 800055e:	f7ff ff53 	bl	8000408 <setFreq.part.0>
 8000562:	bd70      	pop	{r4, r5, r6, pc}
 8000564:	4c15      	ldr	r4, [pc, #84]	; (80005bc <setFreq+0x6c>)
 8000566:	0020      	movs	r0, r4
 8000568:	f001 fb56 	bl	8001c18 <HAL_TIM_Base_Stop_IT>
 800056c:	4b14      	ldr	r3, [pc, #80]	; (80005c0 <setFreq+0x70>)
 800056e:	681b      	ldr	r3, [r3, #0]
 8000570:	639e      	str	r6, [r3, #56]	; 0x38
 8000572:	2d00      	cmp	r5, #0
 8000574:	d106      	bne.n	8000584 <setFreq+0x34>
 8000576:	2090      	movs	r0, #144	; 0x90
 8000578:	002a      	movs	r2, r5
 800057a:	2118      	movs	r1, #24
 800057c:	05c0      	lsls	r0, r0, #23
 800057e:	f000 fd03 	bl	8000f88 <HAL_GPIO_WritePin>
 8000582:	e7ee      	b.n	8000562 <setFreq+0x12>
 8000584:	2105      	movs	r1, #5
 8000586:	480f      	ldr	r0, [pc, #60]	; (80005c4 <setFreq+0x74>)
 8000588:	4369      	muls	r1, r5
 800058a:	f7ff fe51 	bl	8000230 <__divsi3>
 800058e:	6823      	ldr	r3, [r4, #0]
 8000590:	3801      	subs	r0, #1
 8000592:	b280      	uxth	r0, r0
 8000594:	62d8      	str	r0, [r3, #44]	; 0x2c
 8000596:	0840      	lsrs	r0, r0, #1
 8000598:	6358      	str	r0, [r3, #52]	; 0x34
 800059a:	2090      	movs	r0, #144	; 0x90
 800059c:	2200      	movs	r2, #0
 800059e:	2108      	movs	r1, #8
 80005a0:	05c0      	lsls	r0, r0, #23
 80005a2:	f000 fcf1 	bl	8000f88 <HAL_GPIO_WritePin>
 80005a6:	2090      	movs	r0, #144	; 0x90
 80005a8:	2201      	movs	r2, #1
 80005aa:	2110      	movs	r1, #16
 80005ac:	05c0      	lsls	r0, r0, #23
 80005ae:	f000 fceb 	bl	8000f88 <HAL_GPIO_WritePin>
 80005b2:	0020      	movs	r0, r4
 80005b4:	f001 fb08 	bl	8001bc8 <HAL_TIM_Base_Start_IT>
 80005b8:	e7d3      	b.n	8000562 <setFreq+0x12>
 80005ba:	46c0      	nop			; (mov r8, r8)
 80005bc:	20000078 	.word	0x20000078
 80005c0:	200000c8 	.word	0x200000c8
 80005c4:	02dc6c00 	.word	0x02dc6c00

080005c8 <startWavMode>:
 80005c8:	2100      	movs	r1, #0
 80005ca:	b510      	push	{r4, lr}
 80005cc:	0008      	movs	r0, r1
 80005ce:	f7ff ff1b 	bl	8000408 <setFreq.part.0>
 80005d2:	2200      	movs	r2, #0
 80005d4:	2001      	movs	r0, #1
 80005d6:	0011      	movs	r1, r2
 80005d8:	f7ff ffba 	bl	8000550 <setFreq>
 80005dc:	4c07      	ldr	r4, [pc, #28]	; (80005fc <startWavMode+0x34>)
 80005de:	0020      	movs	r0, r4
 80005e0:	f001 fb1a 	bl	8001c18 <HAL_TIM_Base_Stop_IT>
 80005e4:	2300      	movs	r3, #0
 80005e6:	4a06      	ldr	r2, [pc, #24]	; (8000600 <startWavMode+0x38>)
 80005e8:	0020      	movs	r0, r4
 80005ea:	7013      	strb	r3, [r2, #0]
 80005ec:	4a05      	ldr	r2, [pc, #20]	; (8000604 <startWavMode+0x3c>)
 80005ee:	8013      	strh	r3, [r2, #0]
 80005f0:	4a05      	ldr	r2, [pc, #20]	; (8000608 <startWavMode+0x40>)
 80005f2:	7013      	strb	r3, [r2, #0]
 80005f4:	f001 fae8 	bl	8001bc8 <HAL_TIM_Base_Start_IT>
 80005f8:	bd10      	pop	{r4, pc}
 80005fa:	46c0      	nop			; (mov r8, r8)
 80005fc:	20000754 	.word	0x20000754
 8000600:	20000751 	.word	0x20000751
 8000604:	2000079c 	.word	0x2000079c
 8000608:	20000750 	.word	0x20000750

0800060c <stopWavMode>:
 800060c:	b510      	push	{r4, lr}
 800060e:	4806      	ldr	r0, [pc, #24]	; (8000628 <stopWavMode+0x1c>)
 8000610:	f001 fb02 	bl	8001c18 <HAL_TIM_Base_Stop_IT>
 8000614:	2100      	movs	r1, #0
 8000616:	0008      	movs	r0, r1
 8000618:	f7ff fef6 	bl	8000408 <setFreq.part.0>
 800061c:	2200      	movs	r2, #0
 800061e:	2001      	movs	r0, #1
 8000620:	0011      	movs	r1, r2
 8000622:	f7ff ff95 	bl	8000550 <setFreq>
 8000626:	bd10      	pop	{r4, pc}
 8000628:	20000754 	.word	0x20000754

0800062c <SystemClock_Config>:
 800062c:	b570      	push	{r4, r5, r6, lr}
 800062e:	2610      	movs	r6, #16
 8000630:	b094      	sub	sp, #80	; 0x50
 8000632:	221c      	movs	r2, #28
 8000634:	2100      	movs	r1, #0
 8000636:	a809      	add	r0, sp, #36	; 0x24
 8000638:	f001 feb1 	bl	800239e <memset>
 800063c:	0032      	movs	r2, r6
 800063e:	2100      	movs	r1, #0
 8000640:	4668      	mov	r0, sp
 8000642:	f001 feac 	bl	800239e <memset>
 8000646:	0032      	movs	r2, r6
 8000648:	2100      	movs	r1, #0
 800064a:	a804      	add	r0, sp, #16
 800064c:	f001 fea7 	bl	800239e <memset>
 8000650:	22a0      	movs	r2, #160	; 0xa0
 8000652:	2402      	movs	r4, #2
 8000654:	2300      	movs	r3, #0
 8000656:	2501      	movs	r5, #1
 8000658:	0392      	lsls	r2, r2, #14
 800065a:	a808      	add	r0, sp, #32
 800065c:	9408      	str	r4, [sp, #32]
 800065e:	950b      	str	r5, [sp, #44]	; 0x2c
 8000660:	960c      	str	r6, [sp, #48]	; 0x30
 8000662:	9410      	str	r4, [sp, #64]	; 0x40
 8000664:	9311      	str	r3, [sp, #68]	; 0x44
 8000666:	9212      	str	r2, [sp, #72]	; 0x48
 8000668:	9313      	str	r3, [sp, #76]	; 0x4c
 800066a:	f000 fec1 	bl	80013f0 <HAL_RCC_OscConfig>
 800066e:	2800      	cmp	r0, #0
 8000670:	d001      	beq.n	8000676 <SystemClock_Config+0x4a>
 8000672:	b672      	cpsid	i
 8000674:	e7fe      	b.n	8000674 <SystemClock_Config+0x48>
 8000676:	2307      	movs	r3, #7
 8000678:	9002      	str	r0, [sp, #8]
 800067a:	9003      	str	r0, [sp, #12]
 800067c:	0029      	movs	r1, r5
 800067e:	4668      	mov	r0, sp
 8000680:	9300      	str	r3, [sp, #0]
 8000682:	9401      	str	r4, [sp, #4]
 8000684:	f001 f8e6 	bl	8001854 <HAL_RCC_ClockConfig>
 8000688:	2800      	cmp	r0, #0
 800068a:	d001      	beq.n	8000690 <SystemClock_Config+0x64>
 800068c:	b672      	cpsid	i
 800068e:	e7fe      	b.n	800068e <SystemClock_Config+0x62>
 8000690:	2320      	movs	r3, #32
 8000692:	9007      	str	r0, [sp, #28]
 8000694:	a804      	add	r0, sp, #16
 8000696:	9304      	str	r3, [sp, #16]
 8000698:	f001 f960 	bl	800195c <HAL_RCCEx_PeriphCLKConfig>
 800069c:	2800      	cmp	r0, #0
 800069e:	d001      	beq.n	80006a4 <SystemClock_Config+0x78>
 80006a0:	b672      	cpsid	i
 80006a2:	e7fe      	b.n	80006a2 <SystemClock_Config+0x76>
 80006a4:	b014      	add	sp, #80	; 0x50
 80006a6:	bd70      	pop	{r4, r5, r6, pc}

080006a8 <main>:
 80006a8:	b5f0      	push	{r4, r5, r6, r7, lr}
 80006aa:	b095      	sub	sp, #84	; 0x54
 80006ac:	f000 fb48 	bl	8000d40 <HAL_Init>
 80006b0:	f7ff ffbc 	bl	800062c <SystemClock_Config>
 80006b4:	2214      	movs	r2, #20
 80006b6:	2100      	movs	r1, #0
 80006b8:	a80c      	add	r0, sp, #48	; 0x30
 80006ba:	f001 fe70 	bl	800239e <memset>
 80006be:	2080      	movs	r0, #128	; 0x80
 80006c0:	4bbc      	ldr	r3, [pc, #752]	; (80009b4 <main+0x30c>)
 80006c2:	03c0      	lsls	r0, r0, #15
 80006c4:	6959      	ldr	r1, [r3, #20]
 80006c6:	2500      	movs	r5, #0
 80006c8:	4301      	orrs	r1, r0
 80006ca:	6159      	str	r1, [r3, #20]
 80006cc:	2180      	movs	r1, #128	; 0x80
 80006ce:	695a      	ldr	r2, [r3, #20]
 80006d0:	0289      	lsls	r1, r1, #10
 80006d2:	4002      	ands	r2, r0
 80006d4:	2090      	movs	r0, #144	; 0x90
 80006d6:	9201      	str	r2, [sp, #4]
 80006d8:	9a01      	ldr	r2, [sp, #4]
 80006da:	695a      	ldr	r2, [r3, #20]
 80006dc:	05c0      	lsls	r0, r0, #23
 80006de:	430a      	orrs	r2, r1
 80006e0:	615a      	str	r2, [r3, #20]
 80006e2:	695b      	ldr	r3, [r3, #20]
 80006e4:	2200      	movs	r2, #0
 80006e6:	400b      	ands	r3, r1
 80006e8:	9302      	str	r3, [sp, #8]
 80006ea:	2109      	movs	r1, #9
 80006ec:	9b02      	ldr	r3, [sp, #8]
 80006ee:	f000 fc4b 	bl	8000f88 <HAL_GPIO_WritePin>
 80006f2:	2090      	movs	r0, #144	; 0x90
 80006f4:	2201      	movs	r2, #1
 80006f6:	2112      	movs	r1, #18
 80006f8:	05c0      	lsls	r0, r0, #23
 80006fa:	f000 fc45 	bl	8000f88 <HAL_GPIO_WritePin>
 80006fe:	2401      	movs	r4, #1
 8000700:	2303      	movs	r3, #3
 8000702:	48ad      	ldr	r0, [pc, #692]	; (80009b8 <main+0x310>)
 8000704:	a90c      	add	r1, sp, #48	; 0x30
 8000706:	930c      	str	r3, [sp, #48]	; 0x30
 8000708:	940e      	str	r4, [sp, #56]	; 0x38
 800070a:	950d      	str	r5, [sp, #52]	; 0x34
 800070c:	f000 fb8a 	bl	8000e24 <HAL_GPIO_Init>
 8000710:	2090      	movs	r0, #144	; 0x90
 8000712:	231b      	movs	r3, #27
 8000714:	a90c      	add	r1, sp, #48	; 0x30
 8000716:	05c0      	lsls	r0, r0, #23
 8000718:	930c      	str	r3, [sp, #48]	; 0x30
 800071a:	940d      	str	r4, [sp, #52]	; 0x34
 800071c:	940e      	str	r4, [sp, #56]	; 0x38
 800071e:	940f      	str	r4, [sp, #60]	; 0x3c
 8000720:	f000 fb80 	bl	8000e24 <HAL_GPIO_Init>
 8000724:	2090      	movs	r0, #144	; 0x90
 8000726:	2704      	movs	r7, #4
 8000728:	a90c      	add	r1, sp, #48	; 0x30
 800072a:	05c0      	lsls	r0, r0, #23
 800072c:	940e      	str	r4, [sp, #56]	; 0x38
 800072e:	970c      	str	r7, [sp, #48]	; 0x30
 8000730:	950d      	str	r5, [sp, #52]	; 0x34
 8000732:	f000 fb77 	bl	8000e24 <HAL_GPIO_Init>
 8000736:	221c      	movs	r2, #28
 8000738:	0029      	movs	r1, r5
 800073a:	a805      	add	r0, sp, #20
 800073c:	f001 fe2f 	bl	800239e <memset>
 8000740:	2220      	movs	r2, #32
 8000742:	0029      	movs	r1, r5
 8000744:	a80c      	add	r0, sp, #48	; 0x30
 8000746:	f001 fe2a 	bl	800239e <memset>
 800074a:	4c9c      	ldr	r4, [pc, #624]	; (80009bc <main+0x314>)
 800074c:	4b9c      	ldr	r3, [pc, #624]	; (80009c0 <main+0x318>)
 800074e:	0020      	movs	r0, r4
 8000750:	6023      	str	r3, [r4, #0]
 8000752:	4b9c      	ldr	r3, [pc, #624]	; (80009c4 <main+0x31c>)
 8000754:	6067      	str	r7, [r4, #4]
 8000756:	60a5      	str	r5, [r4, #8]
 8000758:	60e3      	str	r3, [r4, #12]
 800075a:	6125      	str	r5, [r4, #16]
 800075c:	6165      	str	r5, [r4, #20]
 800075e:	61a5      	str	r5, [r4, #24]
 8000760:	f001 fb5e 	bl	8001e20 <HAL_TIM_Base_Init>
 8000764:	42a8      	cmp	r0, r5
 8000766:	d001      	beq.n	800076c <main+0xc4>
 8000768:	b672      	cpsid	i
 800076a:	e7fe      	b.n	800076a <main+0xc2>
 800076c:	0020      	movs	r0, r4
 800076e:	f001 fb7f 	bl	8001e70 <HAL_TIM_OC_Init>
 8000772:	1e02      	subs	r2, r0, #0
 8000774:	d001      	beq.n	800077a <main+0xd2>
 8000776:	b672      	cpsid	i
 8000778:	e7fe      	b.n	8000778 <main+0xd0>
 800077a:	9005      	str	r0, [sp, #20]
 800077c:	9006      	str	r0, [sp, #24]
 800077e:	9007      	str	r0, [sp, #28]
 8000780:	9008      	str	r0, [sp, #32]
 8000782:	9009      	str	r0, [sp, #36]	; 0x24
 8000784:	900a      	str	r0, [sp, #40]	; 0x28
 8000786:	900b      	str	r0, [sp, #44]	; 0x2c
 8000788:	a905      	add	r1, sp, #20
 800078a:	0020      	movs	r0, r4
 800078c:	f001 fbfc 	bl	8001f88 <HAL_TIM_OC_ConfigChannel>
 8000790:	2800      	cmp	r0, #0
 8000792:	d001      	beq.n	8000798 <main+0xf0>
 8000794:	b672      	cpsid	i
 8000796:	e7fe      	b.n	8000796 <main+0xee>
 8000798:	2608      	movs	r6, #8
 800079a:	6822      	ldr	r2, [r4, #0]
 800079c:	a90c      	add	r1, sp, #48	; 0x30
 800079e:	6993      	ldr	r3, [r2, #24]
 80007a0:	4333      	orrs	r3, r6
 80007a2:	6193      	str	r3, [r2, #24]
 80007a4:	2380      	movs	r3, #128	; 0x80
 80007a6:	900c      	str	r0, [sp, #48]	; 0x30
 80007a8:	900d      	str	r0, [sp, #52]	; 0x34
 80007aa:	900e      	str	r0, [sp, #56]	; 0x38
 80007ac:	900f      	str	r0, [sp, #60]	; 0x3c
 80007ae:	9010      	str	r0, [sp, #64]	; 0x40
 80007b0:	019b      	lsls	r3, r3, #6
 80007b2:	9013      	str	r0, [sp, #76]	; 0x4c
 80007b4:	0020      	movs	r0, r4
 80007b6:	9311      	str	r3, [sp, #68]	; 0x44
 80007b8:	f001 fd90 	bl	80022dc <HAL_TIMEx_ConfigBreakDeadTime>
 80007bc:	1e05      	subs	r5, r0, #0
 80007be:	d001      	beq.n	80007c4 <main+0x11c>
 80007c0:	b672      	cpsid	i
 80007c2:	e7fe      	b.n	80007c2 <main+0x11a>
 80007c4:	0020      	movs	r0, r4
 80007c6:	f001 f9ff 	bl	8001bc8 <HAL_TIM_Base_Start_IT>
 80007ca:	221c      	movs	r2, #28
 80007cc:	0029      	movs	r1, r5
 80007ce:	a805      	add	r0, sp, #20
 80007d0:	f001 fde5 	bl	800239e <memset>
 80007d4:	2220      	movs	r2, #32
 80007d6:	0029      	movs	r1, r5
 80007d8:	a80c      	add	r0, sp, #48	; 0x30
 80007da:	f001 fde0 	bl	800239e <memset>
 80007de:	4c7a      	ldr	r4, [pc, #488]	; (80009c8 <main+0x320>)
 80007e0:	4b7a      	ldr	r3, [pc, #488]	; (80009cc <main+0x324>)
 80007e2:	0020      	movs	r0, r4
 80007e4:	6023      	str	r3, [r4, #0]
 80007e6:	4b77      	ldr	r3, [pc, #476]	; (80009c4 <main+0x31c>)
 80007e8:	6067      	str	r7, [r4, #4]
 80007ea:	60a5      	str	r5, [r4, #8]
 80007ec:	60e3      	str	r3, [r4, #12]
 80007ee:	6125      	str	r5, [r4, #16]
 80007f0:	6165      	str	r5, [r4, #20]
 80007f2:	61a5      	str	r5, [r4, #24]
 80007f4:	f001 fb14 	bl	8001e20 <HAL_TIM_Base_Init>
 80007f8:	2800      	cmp	r0, #0
 80007fa:	d001      	beq.n	8000800 <main+0x158>
 80007fc:	b672      	cpsid	i
 80007fe:	e7fe      	b.n	80007fe <main+0x156>
 8000800:	0020      	movs	r0, r4
 8000802:	f001 fb35 	bl	8001e70 <HAL_TIM_OC_Init>
 8000806:	1e02      	subs	r2, r0, #0
 8000808:	d001      	beq.n	800080e <main+0x166>
 800080a:	b672      	cpsid	i
 800080c:	e7fe      	b.n	800080c <main+0x164>
 800080e:	9005      	str	r0, [sp, #20]
 8000810:	9006      	str	r0, [sp, #24]
 8000812:	9007      	str	r0, [sp, #28]
 8000814:	9008      	str	r0, [sp, #32]
 8000816:	9009      	str	r0, [sp, #36]	; 0x24
 8000818:	900a      	str	r0, [sp, #40]	; 0x28
 800081a:	900b      	str	r0, [sp, #44]	; 0x2c
 800081c:	a905      	add	r1, sp, #20
 800081e:	0020      	movs	r0, r4
 8000820:	f001 fbb2 	bl	8001f88 <HAL_TIM_OC_ConfigChannel>
 8000824:	2800      	cmp	r0, #0
 8000826:	d001      	beq.n	800082c <main+0x184>
 8000828:	b672      	cpsid	i
 800082a:	e7fe      	b.n	800082a <main+0x182>
 800082c:	6822      	ldr	r2, [r4, #0]
 800082e:	a90c      	add	r1, sp, #48	; 0x30
 8000830:	6993      	ldr	r3, [r2, #24]
 8000832:	4333      	orrs	r3, r6
 8000834:	6193      	str	r3, [r2, #24]
 8000836:	2380      	movs	r3, #128	; 0x80
 8000838:	900c      	str	r0, [sp, #48]	; 0x30
 800083a:	900d      	str	r0, [sp, #52]	; 0x34
 800083c:	900e      	str	r0, [sp, #56]	; 0x38
 800083e:	900f      	str	r0, [sp, #60]	; 0x3c
 8000840:	9010      	str	r0, [sp, #64]	; 0x40
 8000842:	019b      	lsls	r3, r3, #6
 8000844:	9013      	str	r0, [sp, #76]	; 0x4c
 8000846:	0020      	movs	r0, r4
 8000848:	9311      	str	r3, [sp, #68]	; 0x44
 800084a:	f001 fd47 	bl	80022dc <HAL_TIMEx_ConfigBreakDeadTime>
 800084e:	1e05      	subs	r5, r0, #0
 8000850:	d001      	beq.n	8000856 <main+0x1ae>
 8000852:	b672      	cpsid	i
 8000854:	e7fe      	b.n	8000854 <main+0x1ac>
 8000856:	0020      	movs	r0, r4
 8000858:	f001 f9b6 	bl	8001bc8 <HAL_TIM_Base_Start_IT>
 800085c:	2210      	movs	r2, #16
 800085e:	0029      	movs	r1, r5
 8000860:	a805      	add	r0, sp, #20
 8000862:	f001 fd9c 	bl	800239e <memset>
 8000866:	0032      	movs	r2, r6
 8000868:	0029      	movs	r1, r5
 800086a:	a803      	add	r0, sp, #12
 800086c:	f001 fd97 	bl	800239e <memset>
 8000870:	221c      	movs	r2, #28
 8000872:	0029      	movs	r1, r5
 8000874:	a80c      	add	r0, sp, #48	; 0x30
 8000876:	f001 fd92 	bl	800239e <memset>
 800087a:	4c55      	ldr	r4, [pc, #340]	; (80009d0 <main+0x328>)
 800087c:	4b55      	ldr	r3, [pc, #340]	; (80009d4 <main+0x32c>)
 800087e:	0020      	movs	r0, r4
 8000880:	6023      	str	r3, [r4, #0]
 8000882:	2380      	movs	r3, #128	; 0x80
 8000884:	005b      	lsls	r3, r3, #1
 8000886:	60e3      	str	r3, [r4, #12]
 8000888:	3b80      	subs	r3, #128	; 0x80
 800088a:	6065      	str	r5, [r4, #4]
 800088c:	60a5      	str	r5, [r4, #8]
 800088e:	6125      	str	r5, [r4, #16]
 8000890:	61a3      	str	r3, [r4, #24]
 8000892:	f001 fac5 	bl	8001e20 <HAL_TIM_Base_Init>
 8000896:	2800      	cmp	r0, #0
 8000898:	d001      	beq.n	800089e <main+0x1f6>
 800089a:	b672      	cpsid	i
 800089c:	e7fe      	b.n	800089c <main+0x1f4>
 800089e:	2380      	movs	r3, #128	; 0x80
 80008a0:	0020      	movs	r0, r4
 80008a2:	015b      	lsls	r3, r3, #5
 80008a4:	a905      	add	r1, sp, #20
 80008a6:	9305      	str	r3, [sp, #20]
 80008a8:	f001 fbfe 	bl	80020a8 <HAL_TIM_ConfigClockSource>
 80008ac:	2800      	cmp	r0, #0
 80008ae:	d001      	beq.n	80008b4 <main+0x20c>
 80008b0:	b672      	cpsid	i
 80008b2:	e7fe      	b.n	80008b2 <main+0x20a>
 80008b4:	0020      	movs	r0, r4
 80008b6:	f001 fb03 	bl	8001ec0 <HAL_TIM_PWM_Init>
 80008ba:	2800      	cmp	r0, #0
 80008bc:	d001      	beq.n	80008c2 <main+0x21a>
 80008be:	b672      	cpsid	i
 80008c0:	e7fe      	b.n	80008c0 <main+0x218>
 80008c2:	9003      	str	r0, [sp, #12]
 80008c4:	9004      	str	r0, [sp, #16]
 80008c6:	a903      	add	r1, sp, #12
 80008c8:	0020      	movs	r0, r4
 80008ca:	f001 fcdf 	bl	800228c <HAL_TIMEx_MasterConfigSynchronization>
 80008ce:	1e02      	subs	r2, r0, #0
 80008d0:	d001      	beq.n	80008d6 <main+0x22e>
 80008d2:	b672      	cpsid	i
 80008d4:	e7fe      	b.n	80008d4 <main+0x22c>
 80008d6:	2360      	movs	r3, #96	; 0x60
 80008d8:	900e      	str	r0, [sp, #56]	; 0x38
 80008da:	930c      	str	r3, [sp, #48]	; 0x30
 80008dc:	9010      	str	r0, [sp, #64]	; 0x40
 80008de:	33a0      	adds	r3, #160	; 0xa0
 80008e0:	0020      	movs	r0, r4
 80008e2:	a90c      	add	r1, sp, #48	; 0x30
 80008e4:	930d      	str	r3, [sp, #52]	; 0x34
 80008e6:	f001 fb75 	bl	8001fd4 <HAL_TIM_PWM_ConfigChannel>
 80008ea:	2800      	cmp	r0, #0
 80008ec:	d001      	beq.n	80008f2 <main+0x24a>
 80008ee:	b672      	cpsid	i
 80008f0:	e7fe      	b.n	80008f0 <main+0x248>
 80008f2:	2204      	movs	r2, #4
 80008f4:	0020      	movs	r0, r4
 80008f6:	a90c      	add	r1, sp, #48	; 0x30
 80008f8:	f001 fb6c 	bl	8001fd4 <HAL_TIM_PWM_ConfigChannel>
 80008fc:	1e05      	subs	r5, r0, #0
 80008fe:	d001      	beq.n	8000904 <main+0x25c>
 8000900:	b672      	cpsid	i
 8000902:	e7fe      	b.n	8000902 <main+0x25a>
 8000904:	0001      	movs	r1, r0
 8000906:	0020      	movs	r0, r4
 8000908:	f001 fcbc 	bl	8002284 <HAL_TIM_PWM_Start>
 800090c:	2104      	movs	r1, #4
 800090e:	0020      	movs	r0, r4
 8000910:	f001 fcb8 	bl	8002284 <HAL_TIM_PWM_Start>
 8000914:	0020      	movs	r0, r4
 8000916:	f000 f979 	bl	8000c0c <HAL_TIM_MspPostInit>
 800091a:	4c2f      	ldr	r4, [pc, #188]	; (80009d8 <main+0x330>)
 800091c:	4b2f      	ldr	r3, [pc, #188]	; (80009dc <main+0x334>)
 800091e:	0020      	movs	r0, r4
 8000920:	6023      	str	r3, [r4, #0]
 8000922:	4b2f      	ldr	r3, [pc, #188]	; (80009e0 <main+0x338>)
 8000924:	6125      	str	r5, [r4, #16]
 8000926:	6063      	str	r3, [r4, #4]
 8000928:	2382      	movs	r3, #130	; 0x82
 800092a:	60a3      	str	r3, [r4, #8]
 800092c:	3b81      	subs	r3, #129	; 0x81
 800092e:	60e3      	str	r3, [r4, #12]
 8000930:	6165      	str	r5, [r4, #20]
 8000932:	61a5      	str	r5, [r4, #24]
 8000934:	61e5      	str	r5, [r4, #28]
 8000936:	6225      	str	r5, [r4, #32]
 8000938:	f000 fc10 	bl	800115c <HAL_I2C_Init>
 800093c:	1e01      	subs	r1, r0, #0
 800093e:	d001      	beq.n	8000944 <main+0x29c>
 8000940:	b672      	cpsid	i
 8000942:	e7fe      	b.n	8000942 <main+0x29a>
 8000944:	0020      	movs	r0, r4
 8000946:	f000 fd09 	bl	800135c <HAL_I2CEx_ConfigAnalogFilter>
 800094a:	1e01      	subs	r1, r0, #0
 800094c:	d001      	beq.n	8000952 <main+0x2aa>
 800094e:	b672      	cpsid	i
 8000950:	e7fe      	b.n	8000950 <main+0x2a8>
 8000952:	0020      	movs	r0, r4
 8000954:	f000 fd28 	bl	80013a8 <HAL_I2CEx_ConfigDigitalFilter>
 8000958:	1e06      	subs	r6, r0, #0
 800095a:	d001      	beq.n	8000960 <main+0x2b8>
 800095c:	b672      	cpsid	i
 800095e:	e7fe      	b.n	800095e <main+0x2b6>
 8000960:	0001      	movs	r1, r0
 8000962:	221c      	movs	r2, #28
 8000964:	a80c      	add	r0, sp, #48	; 0x30
 8000966:	f001 fd1a 	bl	800239e <memset>
 800096a:	4d1e      	ldr	r5, [pc, #120]	; (80009e4 <main+0x33c>)
 800096c:	4b1e      	ldr	r3, [pc, #120]	; (80009e8 <main+0x340>)
 800096e:	0028      	movs	r0, r5
 8000970:	602b      	str	r3, [r5, #0]
 8000972:	2388      	movs	r3, #136	; 0x88
 8000974:	00db      	lsls	r3, r3, #3
 8000976:	606e      	str	r6, [r5, #4]
 8000978:	60ae      	str	r6, [r5, #8]
 800097a:	60eb      	str	r3, [r5, #12]
 800097c:	612e      	str	r6, [r5, #16]
 800097e:	61ae      	str	r6, [r5, #24]
 8000980:	f001 fa4e 	bl	8001e20 <HAL_TIM_Base_Init>
 8000984:	2800      	cmp	r0, #0
 8000986:	d001      	beq.n	800098c <main+0x2e4>
 8000988:	b672      	cpsid	i
 800098a:	e7fe      	b.n	800098a <main+0x2e2>
 800098c:	0028      	movs	r0, r5
 800098e:	f001 fa6f 	bl	8001e70 <HAL_TIM_OC_Init>
 8000992:	1e02      	subs	r2, r0, #0
 8000994:	d001      	beq.n	800099a <main+0x2f2>
 8000996:	b672      	cpsid	i
 8000998:	e7fe      	b.n	8000998 <main+0x2f0>
 800099a:	900c      	str	r0, [sp, #48]	; 0x30
 800099c:	900d      	str	r0, [sp, #52]	; 0x34
 800099e:	900e      	str	r0, [sp, #56]	; 0x38
 80009a0:	9010      	str	r0, [sp, #64]	; 0x40
 80009a2:	a90c      	add	r1, sp, #48	; 0x30
 80009a4:	0028      	movs	r0, r5
 80009a6:	f001 faef 	bl	8001f88 <HAL_TIM_OC_ConfigChannel>
 80009aa:	2800      	cmp	r0, #0
 80009ac:	d01e      	beq.n	80009ec <main+0x344>
 80009ae:	b672      	cpsid	i
 80009b0:	e7fe      	b.n	80009b0 <main+0x308>
 80009b2:	46c0      	nop			; (mov r8, r8)
 80009b4:	40021000 	.word	0x40021000
 80009b8:	48001400 	.word	0x48001400
 80009bc:	200007a0 	.word	0x200007a0
 80009c0:	40014400 	.word	0x40014400
 80009c4:	0000ffff 	.word	0x0000ffff
 80009c8:	20000078 	.word	0x20000078
 80009cc:	40014800 	.word	0x40014800
 80009d0:	200000c8 	.word	0x200000c8
 80009d4:	40000400 	.word	0x40000400
 80009d8:	2000002c 	.word	0x2000002c
 80009dc:	40005400 	.word	0x40005400
 80009e0:	2000090e 	.word	0x2000090e
 80009e4:	20000754 	.word	0x20000754
 80009e8:	40002000 	.word	0x40002000
 80009ec:	2100      	movs	r1, #0
 80009ee:	0008      	movs	r0, r1
 80009f0:	f7ff fd0a 	bl	8000408 <setFreq.part.0>
 80009f4:	2200      	movs	r2, #0
 80009f6:	2001      	movs	r0, #1
 80009f8:	0011      	movs	r1, r2
 80009fa:	f7ff fda9 	bl	8000550 <setFreq>
 80009fe:	2301      	movs	r3, #1
 8000a00:	4e2a      	ldr	r6, [pc, #168]	; (8000aac <main+0x404>)
 8000a02:	7033      	strb	r3, [r6, #0]
 8000a04:	7833      	ldrb	r3, [r6, #0]
 8000a06:	2b01      	cmp	r3, #1
 8000a08:	d01e      	beq.n	8000a48 <main+0x3a0>
 8000a0a:	2b02      	cmp	r3, #2
 8000a0c:	d1fb      	bne.n	8000a06 <main+0x35e>
 8000a0e:	25c8      	movs	r5, #200	; 0xc8
 8000a10:	4f27      	ldr	r7, [pc, #156]	; (8000ab0 <main+0x408>)
 8000a12:	006d      	lsls	r5, r5, #1
 8000a14:	7839      	ldrb	r1, [r7, #0]
 8000a16:	4b27      	ldr	r3, [pc, #156]	; (8000ab4 <main+0x40c>)
 8000a18:	4369      	muls	r1, r5
 8000a1a:	18c9      	adds	r1, r1, r3
 8000a1c:	2301      	movs	r3, #1
 8000a1e:	002a      	movs	r2, r5
 8000a20:	0020      	movs	r0, r4
 8000a22:	425b      	negs	r3, r3
 8000a24:	f000 fbf0 	bl	8001208 <HAL_I2C_Slave_Receive>
 8000a28:	2800      	cmp	r0, #0
 8000a2a:	d1eb      	bne.n	8000a04 <main+0x35c>
 8000a2c:	7838      	ldrb	r0, [r7, #0]
 8000a2e:	4b21      	ldr	r3, [pc, #132]	; (8000ab4 <main+0x40c>)
 8000a30:	4368      	muls	r0, r5
 8000a32:	4921      	ldr	r1, [pc, #132]	; (8000ab8 <main+0x410>)
 8000a34:	18c0      	adds	r0, r0, r3
 8000a36:	f7ff fb67 	bl	8000108 <strcmp>
 8000a3a:	2800      	cmp	r0, #0
 8000a3c:	d12f      	bne.n	8000a9e <main+0x3f6>
 8000a3e:	2301      	movs	r3, #1
 8000a40:	7033      	strb	r3, [r6, #0]
 8000a42:	f7ff fde3 	bl	800060c <stopWavMode>
 8000a46:	e7dd      	b.n	8000a04 <main+0x35c>
 8000a48:	2301      	movs	r3, #1
 8000a4a:	4d1c      	ldr	r5, [pc, #112]	; (8000abc <main+0x414>)
 8000a4c:	2206      	movs	r2, #6
 8000a4e:	0029      	movs	r1, r5
 8000a50:	0020      	movs	r0, r4
 8000a52:	425b      	negs	r3, r3
 8000a54:	f000 fbd8 	bl	8001208 <HAL_I2C_Slave_Receive>
 8000a58:	2800      	cmp	r0, #0
 8000a5a:	d1d3      	bne.n	8000a04 <main+0x35c>
 8000a5c:	786b      	ldrb	r3, [r5, #1]
 8000a5e:	7828      	ldrb	r0, [r5, #0]
 8000a60:	021b      	lsls	r3, r3, #8
 8000a62:	18c0      	adds	r0, r0, r3
 8000a64:	78eb      	ldrb	r3, [r5, #3]
 8000a66:	78af      	ldrb	r7, [r5, #2]
 8000a68:	021b      	lsls	r3, r3, #8
 8000a6a:	b280      	uxth	r0, r0
 8000a6c:	18ff      	adds	r7, r7, r3
 8000a6e:	0003      	movs	r3, r0
 8000a70:	b2bf      	uxth	r7, r7
 8000a72:	7929      	ldrb	r1, [r5, #4]
 8000a74:	433b      	orrs	r3, r7
 8000a76:	796d      	ldrb	r5, [r5, #5]
 8000a78:	2b00      	cmp	r3, #0
 8000a7a:	d108      	bne.n	8000a8e <main+0x3e6>
 8000a7c:	002b      	movs	r3, r5
 8000a7e:	400b      	ands	r3, r1
 8000a80:	2bff      	cmp	r3, #255	; 0xff
 8000a82:	d104      	bne.n	8000a8e <main+0x3e6>
 8000a84:	3bfd      	subs	r3, #253	; 0xfd
 8000a86:	7033      	strb	r3, [r6, #0]
 8000a88:	f7ff fd9e 	bl	80005c8 <startWavMode>
 8000a8c:	e7ba      	b.n	8000a04 <main+0x35c>
 8000a8e:	f7ff fcbb 	bl	8000408 <setFreq.part.0>
 8000a92:	002a      	movs	r2, r5
 8000a94:	0039      	movs	r1, r7
 8000a96:	2001      	movs	r0, #1
 8000a98:	f7ff fd5a 	bl	8000550 <setFreq>
 8000a9c:	e7b2      	b.n	8000a04 <main+0x35c>
 8000a9e:	2203      	movs	r2, #3
 8000aa0:	783b      	ldrb	r3, [r7, #0]
 8000aa2:	3301      	adds	r3, #1
 8000aa4:	4013      	ands	r3, r2
 8000aa6:	703b      	strb	r3, [r7, #0]
 8000aa8:	e7ac      	b.n	8000a04 <main+0x35c>
 8000aaa:	46c0      	nop			; (mov r8, r8)
 8000aac:	20000028 	.word	0x20000028
 8000ab0:	20000750 	.word	0x20000750
 8000ab4:	20000110 	.word	0x20000110
 8000ab8:	080023c8 	.word	0x080023c8
 8000abc:	200000c0 	.word	0x200000c0

08000ac0 <HAL_MspInit>:
 8000ac0:	2001      	movs	r0, #1
 8000ac2:	4b0a      	ldr	r3, [pc, #40]	; (8000aec <HAL_MspInit+0x2c>)
 8000ac4:	b082      	sub	sp, #8
 8000ac6:	6999      	ldr	r1, [r3, #24]
 8000ac8:	4301      	orrs	r1, r0
 8000aca:	6199      	str	r1, [r3, #24]
 8000acc:	2180      	movs	r1, #128	; 0x80
 8000ace:	699a      	ldr	r2, [r3, #24]
 8000ad0:	0549      	lsls	r1, r1, #21
 8000ad2:	4002      	ands	r2, r0
 8000ad4:	9200      	str	r2, [sp, #0]
 8000ad6:	9a00      	ldr	r2, [sp, #0]
 8000ad8:	69da      	ldr	r2, [r3, #28]
 8000ada:	430a      	orrs	r2, r1
 8000adc:	61da      	str	r2, [r3, #28]
 8000ade:	69db      	ldr	r3, [r3, #28]
 8000ae0:	400b      	ands	r3, r1
 8000ae2:	9301      	str	r3, [sp, #4]
 8000ae4:	9b01      	ldr	r3, [sp, #4]
 8000ae6:	b002      	add	sp, #8
 8000ae8:	4770      	bx	lr
 8000aea:	46c0      	nop			; (mov r8, r8)
 8000aec:	40021000 	.word	0x40021000

08000af0 <HAL_I2C_MspInit>:
 8000af0:	b510      	push	{r4, lr}
 8000af2:	0004      	movs	r4, r0
 8000af4:	b088      	sub	sp, #32
 8000af6:	2214      	movs	r2, #20
 8000af8:	2100      	movs	r1, #0
 8000afa:	a803      	add	r0, sp, #12
 8000afc:	f001 fc4f 	bl	800239e <memset>
 8000b00:	4b14      	ldr	r3, [pc, #80]	; (8000b54 <HAL_I2C_MspInit+0x64>)
 8000b02:	6822      	ldr	r2, [r4, #0]
 8000b04:	429a      	cmp	r2, r3
 8000b06:	d122      	bne.n	8000b4e <HAL_I2C_MspInit+0x5e>
 8000b08:	2180      	movs	r1, #128	; 0x80
 8000b0a:	4c13      	ldr	r4, [pc, #76]	; (8000b58 <HAL_I2C_MspInit+0x68>)
 8000b0c:	0289      	lsls	r1, r1, #10
 8000b0e:	6962      	ldr	r2, [r4, #20]
 8000b10:	2090      	movs	r0, #144	; 0x90
 8000b12:	430a      	orrs	r2, r1
 8000b14:	6162      	str	r2, [r4, #20]
 8000b16:	6963      	ldr	r3, [r4, #20]
 8000b18:	05c0      	lsls	r0, r0, #23
 8000b1a:	400b      	ands	r3, r1
 8000b1c:	9301      	str	r3, [sp, #4]
 8000b1e:	9b01      	ldr	r3, [sp, #4]
 8000b20:	23c0      	movs	r3, #192	; 0xc0
 8000b22:	00db      	lsls	r3, r3, #3
 8000b24:	9303      	str	r3, [sp, #12]
 8000b26:	2312      	movs	r3, #18
 8000b28:	9304      	str	r3, [sp, #16]
 8000b2a:	2300      	movs	r3, #0
 8000b2c:	9305      	str	r3, [sp, #20]
 8000b2e:	3303      	adds	r3, #3
 8000b30:	9306      	str	r3, [sp, #24]
 8000b32:	a903      	add	r1, sp, #12
 8000b34:	3301      	adds	r3, #1
 8000b36:	9307      	str	r3, [sp, #28]
 8000b38:	f000 f974 	bl	8000e24 <HAL_GPIO_Init>
 8000b3c:	2180      	movs	r1, #128	; 0x80
 8000b3e:	69e2      	ldr	r2, [r4, #28]
 8000b40:	0389      	lsls	r1, r1, #14
 8000b42:	430a      	orrs	r2, r1
 8000b44:	61e2      	str	r2, [r4, #28]
 8000b46:	69e3      	ldr	r3, [r4, #28]
 8000b48:	400b      	ands	r3, r1
 8000b4a:	9302      	str	r3, [sp, #8]
 8000b4c:	9b02      	ldr	r3, [sp, #8]
 8000b4e:	b008      	add	sp, #32
 8000b50:	bd10      	pop	{r4, pc}
 8000b52:	46c0      	nop			; (mov r8, r8)
 8000b54:	40005400 	.word	0x40005400
 8000b58:	40021000 	.word	0x40021000

08000b5c <HAL_TIM_Base_MspInit>:
 8000b5c:	b51f      	push	{r0, r1, r2, r3, r4, lr}
 8000b5e:	6803      	ldr	r3, [r0, #0]
 8000b60:	4a25      	ldr	r2, [pc, #148]	; (8000bf8 <HAL_TIM_Base_MspInit+0x9c>)
 8000b62:	4293      	cmp	r3, r2
 8000b64:	d10a      	bne.n	8000b7c <HAL_TIM_Base_MspInit+0x20>
 8000b66:	2002      	movs	r0, #2
 8000b68:	4a24      	ldr	r2, [pc, #144]	; (8000bfc <HAL_TIM_Base_MspInit+0xa0>)
 8000b6a:	69d1      	ldr	r1, [r2, #28]
 8000b6c:	4301      	orrs	r1, r0
 8000b6e:	61d1      	str	r1, [r2, #28]
 8000b70:	69d3      	ldr	r3, [r2, #28]
 8000b72:	4003      	ands	r3, r0
 8000b74:	9300      	str	r3, [sp, #0]
 8000b76:	9b00      	ldr	r3, [sp, #0]
 8000b78:	b005      	add	sp, #20
 8000b7a:	bd00      	pop	{pc}
 8000b7c:	4a20      	ldr	r2, [pc, #128]	; (8000c00 <HAL_TIM_Base_MspInit+0xa4>)
 8000b7e:	4293      	cmp	r3, r2
 8000b80:	d112      	bne.n	8000ba8 <HAL_TIM_Base_MspInit+0x4c>
 8000b82:	2080      	movs	r0, #128	; 0x80
 8000b84:	4a1d      	ldr	r2, [pc, #116]	; (8000bfc <HAL_TIM_Base_MspInit+0xa0>)
 8000b86:	0040      	lsls	r0, r0, #1
 8000b88:	69d1      	ldr	r1, [r2, #28]
 8000b8a:	4301      	orrs	r1, r0
 8000b8c:	61d1      	str	r1, [r2, #28]
 8000b8e:	69d3      	ldr	r3, [r2, #28]
 8000b90:	2200      	movs	r2, #0
 8000b92:	4003      	ands	r3, r0
 8000b94:	9301      	str	r3, [sp, #4]
 8000b96:	38ed      	subs	r0, #237	; 0xed
 8000b98:	0011      	movs	r1, r2
 8000b9a:	9b01      	ldr	r3, [sp, #4]
 8000b9c:	f000 f8f2 	bl	8000d84 <HAL_NVIC_SetPriority>
 8000ba0:	2013      	movs	r0, #19
 8000ba2:	f000 f919 	bl	8000dd8 <HAL_NVIC_EnableIRQ>
 8000ba6:	e7e7      	b.n	8000b78 <HAL_TIM_Base_MspInit+0x1c>
 8000ba8:	4a16      	ldr	r2, [pc, #88]	; (8000c04 <HAL_TIM_Base_MspInit+0xa8>)
 8000baa:	4293      	cmp	r3, r2
 8000bac:	d110      	bne.n	8000bd0 <HAL_TIM_Base_MspInit+0x74>
 8000bae:	2080      	movs	r0, #128	; 0x80
 8000bb0:	4a12      	ldr	r2, [pc, #72]	; (8000bfc <HAL_TIM_Base_MspInit+0xa0>)
 8000bb2:	0280      	lsls	r0, r0, #10
 8000bb4:	6991      	ldr	r1, [r2, #24]
 8000bb6:	4301      	orrs	r1, r0
 8000bb8:	6191      	str	r1, [r2, #24]
 8000bba:	6993      	ldr	r3, [r2, #24]
 8000bbc:	2200      	movs	r2, #0
 8000bbe:	4003      	ands	r3, r0
 8000bc0:	9302      	str	r3, [sp, #8]
 8000bc2:	2015      	movs	r0, #21
 8000bc4:	0011      	movs	r1, r2
 8000bc6:	9b02      	ldr	r3, [sp, #8]
 8000bc8:	f000 f8dc 	bl	8000d84 <HAL_NVIC_SetPriority>
 8000bcc:	2015      	movs	r0, #21
 8000bce:	e7e8      	b.n	8000ba2 <HAL_TIM_Base_MspInit+0x46>
 8000bd0:	4a0d      	ldr	r2, [pc, #52]	; (8000c08 <HAL_TIM_Base_MspInit+0xac>)
 8000bd2:	4293      	cmp	r3, r2
 8000bd4:	d1d0      	bne.n	8000b78 <HAL_TIM_Base_MspInit+0x1c>
 8000bd6:	2080      	movs	r0, #128	; 0x80
 8000bd8:	4a08      	ldr	r2, [pc, #32]	; (8000bfc <HAL_TIM_Base_MspInit+0xa0>)
 8000bda:	02c0      	lsls	r0, r0, #11
 8000bdc:	6991      	ldr	r1, [r2, #24]
 8000bde:	4301      	orrs	r1, r0
 8000be0:	6191      	str	r1, [r2, #24]
 8000be2:	6993      	ldr	r3, [r2, #24]
 8000be4:	2200      	movs	r2, #0
 8000be6:	4003      	ands	r3, r0
 8000be8:	9303      	str	r3, [sp, #12]
 8000bea:	2016      	movs	r0, #22
 8000bec:	0011      	movs	r1, r2
 8000bee:	9b03      	ldr	r3, [sp, #12]
 8000bf0:	f000 f8c8 	bl	8000d84 <HAL_NVIC_SetPriority>
 8000bf4:	2016      	movs	r0, #22
 8000bf6:	e7d4      	b.n	8000ba2 <HAL_TIM_Base_MspInit+0x46>
 8000bf8:	40000400 	.word	0x40000400
 8000bfc:	40021000 	.word	0x40021000
 8000c00:	40002000 	.word	0x40002000
 8000c04:	40014400 	.word	0x40014400
 8000c08:	40014800 	.word	0x40014800

08000c0c <HAL_TIM_MspPostInit>:
 8000c0c:	b510      	push	{r4, lr}
 8000c0e:	0004      	movs	r4, r0
 8000c10:	b086      	sub	sp, #24
 8000c12:	2214      	movs	r2, #20
 8000c14:	2100      	movs	r1, #0
 8000c16:	a801      	add	r0, sp, #4
 8000c18:	f001 fbc1 	bl	800239e <memset>
 8000c1c:	4b0e      	ldr	r3, [pc, #56]	; (8000c58 <HAL_TIM_MspPostInit+0x4c>)
 8000c1e:	6822      	ldr	r2, [r4, #0]
 8000c20:	429a      	cmp	r2, r3
 8000c22:	d116      	bne.n	8000c52 <HAL_TIM_MspPostInit+0x46>
 8000c24:	2080      	movs	r0, #128	; 0x80
 8000c26:	4a0d      	ldr	r2, [pc, #52]	; (8000c5c <HAL_TIM_MspPostInit+0x50>)
 8000c28:	0280      	lsls	r0, r0, #10
 8000c2a:	6951      	ldr	r1, [r2, #20]
 8000c2c:	4301      	orrs	r1, r0
 8000c2e:	6151      	str	r1, [r2, #20]
 8000c30:	6953      	ldr	r3, [r2, #20]
 8000c32:	a901      	add	r1, sp, #4
 8000c34:	4003      	ands	r3, r0
 8000c36:	9300      	str	r3, [sp, #0]
 8000c38:	9b00      	ldr	r3, [sp, #0]
 8000c3a:	23c0      	movs	r3, #192	; 0xc0
 8000c3c:	2090      	movs	r0, #144	; 0x90
 8000c3e:	9301      	str	r3, [sp, #4]
 8000c40:	3bbe      	subs	r3, #190	; 0xbe
 8000c42:	9302      	str	r3, [sp, #8]
 8000c44:	05c0      	lsls	r0, r0, #23
 8000c46:	3b01      	subs	r3, #1
 8000c48:	9303      	str	r3, [sp, #12]
 8000c4a:	9304      	str	r3, [sp, #16]
 8000c4c:	9305      	str	r3, [sp, #20]
 8000c4e:	f000 f8e9 	bl	8000e24 <HAL_GPIO_Init>
 8000c52:	b006      	add	sp, #24
 8000c54:	bd10      	pop	{r4, pc}
 8000c56:	46c0      	nop			; (mov r8, r8)
 8000c58:	40000400 	.word	0x40000400
 8000c5c:	40021000 	.word	0x40021000

08000c60 <NMI_Handler>:
 8000c60:	e7fe      	b.n	8000c60 <NMI_Handler>

08000c62 <HardFault_Handler>:
 8000c62:	e7fe      	b.n	8000c62 <HardFault_Handler>

08000c64 <SVC_Handler>:
 8000c64:	4770      	bx	lr

08000c66 <PendSV_Handler>:
 8000c66:	4770      	bx	lr

08000c68 <SysTick_Handler>:
 8000c68:	b510      	push	{r4, lr}
 8000c6a:	f000 f879 	bl	8000d60 <HAL_IncTick>
 8000c6e:	bd10      	pop	{r4, pc}

08000c70 <TIM14_IRQHandler>:
 8000c70:	b510      	push	{r4, lr}
 8000c72:	4802      	ldr	r0, [pc, #8]	; (8000c7c <TIM14_IRQHandler+0xc>)
 8000c74:	f000 fff0 	bl	8001c58 <HAL_TIM_IRQHandler>
 8000c78:	bd10      	pop	{r4, pc}
 8000c7a:	46c0      	nop			; (mov r8, r8)
 8000c7c:	20000754 	.word	0x20000754

08000c80 <TIM16_IRQHandler>:
 8000c80:	b510      	push	{r4, lr}
 8000c82:	4802      	ldr	r0, [pc, #8]	; (8000c8c <TIM16_IRQHandler+0xc>)
 8000c84:	f000 ffe8 	bl	8001c58 <HAL_TIM_IRQHandler>
 8000c88:	bd10      	pop	{r4, pc}
 8000c8a:	46c0      	nop			; (mov r8, r8)
 8000c8c:	200007a0 	.word	0x200007a0

08000c90 <TIM17_IRQHandler>:
 8000c90:	b510      	push	{r4, lr}
 8000c92:	4802      	ldr	r0, [pc, #8]	; (8000c9c <TIM17_IRQHandler+0xc>)
 8000c94:	f000 ffe0 	bl	8001c58 <HAL_TIM_IRQHandler>
 8000c98:	bd10      	pop	{r4, pc}
 8000c9a:	46c0      	nop			; (mov r8, r8)
 8000c9c:	20000078 	.word	0x20000078

08000ca0 <SystemInit>:
 8000ca0:	4770      	bx	lr
	...

08000ca4 <Reset_Handler>:
 8000ca4:	480d      	ldr	r0, [pc, #52]	; (8000cdc <LoopForever+0x2>)
 8000ca6:	4685      	mov	sp, r0
 8000ca8:	480d      	ldr	r0, [pc, #52]	; (8000ce0 <LoopForever+0x6>)
 8000caa:	490e      	ldr	r1, [pc, #56]	; (8000ce4 <LoopForever+0xa>)
 8000cac:	4a0e      	ldr	r2, [pc, #56]	; (8000ce8 <LoopForever+0xe>)
 8000cae:	2300      	movs	r3, #0
 8000cb0:	e002      	b.n	8000cb8 <LoopCopyDataInit>

08000cb2 <CopyDataInit>:
 8000cb2:	58d4      	ldr	r4, [r2, r3]
 8000cb4:	50c4      	str	r4, [r0, r3]
 8000cb6:	3304      	adds	r3, #4

08000cb8 <LoopCopyDataInit>:
 8000cb8:	18c4      	adds	r4, r0, r3
 8000cba:	428c      	cmp	r4, r1
 8000cbc:	d3f9      	bcc.n	8000cb2 <CopyDataInit>
 8000cbe:	4a0b      	ldr	r2, [pc, #44]	; (8000cec <LoopForever+0x12>)
 8000cc0:	4c0b      	ldr	r4, [pc, #44]	; (8000cf0 <LoopForever+0x16>)
 8000cc2:	2300      	movs	r3, #0
 8000cc4:	e001      	b.n	8000cca <LoopFillZerobss>

08000cc6 <FillZerobss>:
 8000cc6:	6013      	str	r3, [r2, #0]
 8000cc8:	3204      	adds	r2, #4

08000cca <LoopFillZerobss>:
 8000cca:	42a2      	cmp	r2, r4
 8000ccc:	d3fb      	bcc.n	8000cc6 <FillZerobss>
 8000cce:	f7ff ffe7 	bl	8000ca0 <SystemInit>
 8000cd2:	f001 fb37 	bl	8002344 <__libc_init_array>
 8000cd6:	f7ff fce7 	bl	80006a8 <main>

08000cda <LoopForever>:
 8000cda:	e7fe      	b.n	8000cda <LoopForever>
 8000cdc:	20001000 	.word	0x20001000
 8000ce0:	20000000 	.word	0x20000000
 8000ce4:	2000000c 	.word	0x2000000c
 8000ce8:	08002410 	.word	0x08002410
 8000cec:	2000000c 	.word	0x2000000c
 8000cf0:	200007ec 	.word	0x200007ec

08000cf4 <ADC1_IRQHandler>:
 8000cf4:	e7fe      	b.n	8000cf4 <ADC1_IRQHandler>
	...

08000cf8 <HAL_InitTick>:
 8000cf8:	b570      	push	{r4, r5, r6, lr}
 8000cfa:	0005      	movs	r5, r0
 8000cfc:	20fa      	movs	r0, #250	; 0xfa
 8000cfe:	4b0d      	ldr	r3, [pc, #52]	; (8000d34 <HAL_InitTick+0x3c>)
 8000d00:	0080      	lsls	r0, r0, #2
 8000d02:	7819      	ldrb	r1, [r3, #0]
 8000d04:	f7ff fa0a 	bl	800011c <__udivsi3>
 8000d08:	4b0b      	ldr	r3, [pc, #44]	; (8000d38 <HAL_InitTick+0x40>)
 8000d0a:	0001      	movs	r1, r0
 8000d0c:	6818      	ldr	r0, [r3, #0]
 8000d0e:	f7ff fa05 	bl	800011c <__udivsi3>
 8000d12:	f000 f86d 	bl	8000df0 <HAL_SYSTICK_Config>
 8000d16:	0004      	movs	r4, r0
 8000d18:	2001      	movs	r0, #1
 8000d1a:	2c00      	cmp	r4, #0
 8000d1c:	d109      	bne.n	8000d32 <HAL_InitTick+0x3a>
 8000d1e:	2d03      	cmp	r5, #3
 8000d20:	d807      	bhi.n	8000d32 <HAL_InitTick+0x3a>
 8000d22:	3802      	subs	r0, #2
 8000d24:	0022      	movs	r2, r4
 8000d26:	0029      	movs	r1, r5
 8000d28:	f000 f82c 	bl	8000d84 <HAL_NVIC_SetPriority>
 8000d2c:	0020      	movs	r0, r4
 8000d2e:	4b03      	ldr	r3, [pc, #12]	; (8000d3c <HAL_InitTick+0x44>)
 8000d30:	601d      	str	r5, [r3, #0]
 8000d32:	bd70      	pop	{r4, r5, r6, pc}
 8000d34:	20000004 	.word	0x20000004
 8000d38:	20000000 	.word	0x20000000
 8000d3c:	20000008 	.word	0x20000008

08000d40 <HAL_Init>:
 8000d40:	2310      	movs	r3, #16
 8000d42:	4a06      	ldr	r2, [pc, #24]	; (8000d5c <HAL_Init+0x1c>)
 8000d44:	b510      	push	{r4, lr}
 8000d46:	6811      	ldr	r1, [r2, #0]
 8000d48:	2000      	movs	r0, #0
 8000d4a:	430b      	orrs	r3, r1
 8000d4c:	6013      	str	r3, [r2, #0]
 8000d4e:	f7ff ffd3 	bl	8000cf8 <HAL_InitTick>
 8000d52:	f7ff feb5 	bl	8000ac0 <HAL_MspInit>
 8000d56:	2000      	movs	r0, #0
 8000d58:	bd10      	pop	{r4, pc}
 8000d5a:	46c0      	nop			; (mov r8, r8)
 8000d5c:	40022000 	.word	0x40022000

08000d60 <HAL_IncTick>:
 8000d60:	4a03      	ldr	r2, [pc, #12]	; (8000d70 <HAL_IncTick+0x10>)
 8000d62:	4b04      	ldr	r3, [pc, #16]	; (8000d74 <HAL_IncTick+0x14>)
 8000d64:	6811      	ldr	r1, [r2, #0]
 8000d66:	781b      	ldrb	r3, [r3, #0]
 8000d68:	185b      	adds	r3, r3, r1
 8000d6a:	6013      	str	r3, [r2, #0]
 8000d6c:	4770      	bx	lr
 8000d6e:	46c0      	nop			; (mov r8, r8)
 8000d70:	200007e8 	.word	0x200007e8
 8000d74:	20000004 	.word	0x20000004

08000d78 <HAL_GetTick>:
 8000d78:	4b01      	ldr	r3, [pc, #4]	; (8000d80 <HAL_GetTick+0x8>)
 8000d7a:	6818      	ldr	r0, [r3, #0]
 8000d7c:	4770      	bx	lr
 8000d7e:	46c0      	nop			; (mov r8, r8)
 8000d80:	200007e8 	.word	0x200007e8

08000d84 <HAL_NVIC_SetPriority>:
 8000d84:	b530      	push	{r4, r5, lr}
 8000d86:	25ff      	movs	r5, #255	; 0xff
 8000d88:	2403      	movs	r4, #3
 8000d8a:	002a      	movs	r2, r5
 8000d8c:	4004      	ands	r4, r0
 8000d8e:	00e4      	lsls	r4, r4, #3
 8000d90:	40a2      	lsls	r2, r4
 8000d92:	0189      	lsls	r1, r1, #6
 8000d94:	4029      	ands	r1, r5
 8000d96:	43d2      	mvns	r2, r2
 8000d98:	40a1      	lsls	r1, r4
 8000d9a:	b2c3      	uxtb	r3, r0
 8000d9c:	2800      	cmp	r0, #0
 8000d9e:	db0a      	blt.n	8000db6 <HAL_NVIC_SetPriority+0x32>
 8000da0:	24c0      	movs	r4, #192	; 0xc0
 8000da2:	4b0b      	ldr	r3, [pc, #44]	; (8000dd0 <HAL_NVIC_SetPriority+0x4c>)
 8000da4:	0880      	lsrs	r0, r0, #2
 8000da6:	0080      	lsls	r0, r0, #2
 8000da8:	18c0      	adds	r0, r0, r3
 8000daa:	00a4      	lsls	r4, r4, #2
 8000dac:	5903      	ldr	r3, [r0, r4]
 8000dae:	401a      	ands	r2, r3
 8000db0:	4311      	orrs	r1, r2
 8000db2:	5101      	str	r1, [r0, r4]
 8000db4:	bd30      	pop	{r4, r5, pc}
 8000db6:	200f      	movs	r0, #15
 8000db8:	4003      	ands	r3, r0
 8000dba:	3b08      	subs	r3, #8
 8000dbc:	4805      	ldr	r0, [pc, #20]	; (8000dd4 <HAL_NVIC_SetPriority+0x50>)
 8000dbe:	089b      	lsrs	r3, r3, #2
 8000dc0:	009b      	lsls	r3, r3, #2
 8000dc2:	181b      	adds	r3, r3, r0
 8000dc4:	69d8      	ldr	r0, [r3, #28]
 8000dc6:	4002      	ands	r2, r0
 8000dc8:	4311      	orrs	r1, r2
 8000dca:	61d9      	str	r1, [r3, #28]
 8000dcc:	e7f2      	b.n	8000db4 <HAL_NVIC_SetPriority+0x30>
 8000dce:	46c0      	nop			; (mov r8, r8)
 8000dd0:	e000e100 	.word	0xe000e100
 8000dd4:	e000ed00 	.word	0xe000ed00

08000dd8 <HAL_NVIC_EnableIRQ>:
 8000dd8:	2800      	cmp	r0, #0
 8000dda:	db05      	blt.n	8000de8 <HAL_NVIC_EnableIRQ+0x10>
 8000ddc:	231f      	movs	r3, #31
 8000dde:	4018      	ands	r0, r3
 8000de0:	3b1e      	subs	r3, #30
 8000de2:	4083      	lsls	r3, r0
 8000de4:	4a01      	ldr	r2, [pc, #4]	; (8000dec <HAL_NVIC_EnableIRQ+0x14>)
 8000de6:	6013      	str	r3, [r2, #0]
 8000de8:	4770      	bx	lr
 8000dea:	46c0      	nop			; (mov r8, r8)
 8000dec:	e000e100 	.word	0xe000e100

08000df0 <HAL_SYSTICK_Config>:
 8000df0:	2280      	movs	r2, #128	; 0x80
 8000df2:	1e43      	subs	r3, r0, #1
 8000df4:	0452      	lsls	r2, r2, #17
 8000df6:	2001      	movs	r0, #1
 8000df8:	4293      	cmp	r3, r2
 8000dfa:	d20d      	bcs.n	8000e18 <HAL_SYSTICK_Config+0x28>
 8000dfc:	21c0      	movs	r1, #192	; 0xc0
 8000dfe:	4a07      	ldr	r2, [pc, #28]	; (8000e1c <HAL_SYSTICK_Config+0x2c>)
 8000e00:	4807      	ldr	r0, [pc, #28]	; (8000e20 <HAL_SYSTICK_Config+0x30>)
 8000e02:	6053      	str	r3, [r2, #4]
 8000e04:	6a03      	ldr	r3, [r0, #32]
 8000e06:	0609      	lsls	r1, r1, #24
 8000e08:	021b      	lsls	r3, r3, #8
 8000e0a:	0a1b      	lsrs	r3, r3, #8
 8000e0c:	430b      	orrs	r3, r1
 8000e0e:	6203      	str	r3, [r0, #32]
 8000e10:	2000      	movs	r0, #0
 8000e12:	2307      	movs	r3, #7
 8000e14:	6090      	str	r0, [r2, #8]
 8000e16:	6013      	str	r3, [r2, #0]
 8000e18:	4770      	bx	lr
 8000e1a:	46c0      	nop			; (mov r8, r8)
 8000e1c:	e000e010 	.word	0xe000e010
 8000e20:	e000ed00 	.word	0xe000ed00

08000e24 <HAL_GPIO_Init>:
 8000e24:	2300      	movs	r3, #0
 8000e26:	b5f0      	push	{r4, r5, r6, r7, lr}
 8000e28:	b087      	sub	sp, #28
 8000e2a:	680a      	ldr	r2, [r1, #0]
 8000e2c:	0014      	movs	r4, r2
 8000e2e:	40dc      	lsrs	r4, r3
 8000e30:	d101      	bne.n	8000e36 <HAL_GPIO_Init+0x12>
 8000e32:	b007      	add	sp, #28
 8000e34:	bdf0      	pop	{r4, r5, r6, r7, pc}
 8000e36:	2401      	movs	r4, #1
 8000e38:	0015      	movs	r5, r2
 8000e3a:	409c      	lsls	r4, r3
 8000e3c:	4025      	ands	r5, r4
 8000e3e:	9502      	str	r5, [sp, #8]
 8000e40:	4222      	tst	r2, r4
 8000e42:	d100      	bne.n	8000e46 <HAL_GPIO_Init+0x22>
 8000e44:	e091      	b.n	8000f6a <HAL_GPIO_Init+0x146>
 8000e46:	2510      	movs	r5, #16
 8000e48:	684a      	ldr	r2, [r1, #4]
 8000e4a:	005e      	lsls	r6, r3, #1
 8000e4c:	9201      	str	r2, [sp, #4]
 8000e4e:	43aa      	bics	r2, r5
 8000e50:	3d0d      	subs	r5, #13
 8000e52:	40b5      	lsls	r5, r6
 8000e54:	4694      	mov	ip, r2
 8000e56:	3a01      	subs	r2, #1
 8000e58:	43ed      	mvns	r5, r5
 8000e5a:	2a01      	cmp	r2, #1
 8000e5c:	d80f      	bhi.n	8000e7e <HAL_GPIO_Init+0x5a>
 8000e5e:	68ca      	ldr	r2, [r1, #12]
 8000e60:	6887      	ldr	r7, [r0, #8]
 8000e62:	40b2      	lsls	r2, r6
 8000e64:	402f      	ands	r7, r5
 8000e66:	433a      	orrs	r2, r7
 8000e68:	2701      	movs	r7, #1
 8000e6a:	6082      	str	r2, [r0, #8]
 8000e6c:	6842      	ldr	r2, [r0, #4]
 8000e6e:	43a2      	bics	r2, r4
 8000e70:	0014      	movs	r4, r2
 8000e72:	9a01      	ldr	r2, [sp, #4]
 8000e74:	0912      	lsrs	r2, r2, #4
 8000e76:	403a      	ands	r2, r7
 8000e78:	409a      	lsls	r2, r3
 8000e7a:	4322      	orrs	r2, r4
 8000e7c:	6042      	str	r2, [r0, #4]
 8000e7e:	688a      	ldr	r2, [r1, #8]
 8000e80:	68c4      	ldr	r4, [r0, #12]
 8000e82:	40b2      	lsls	r2, r6
 8000e84:	402c      	ands	r4, r5
 8000e86:	4322      	orrs	r2, r4
 8000e88:	60c2      	str	r2, [r0, #12]
 8000e8a:	4662      	mov	r2, ip
 8000e8c:	2a02      	cmp	r2, #2
 8000e8e:	d10f      	bne.n	8000eb0 <HAL_GPIO_Init+0x8c>
 8000e90:	08da      	lsrs	r2, r3, #3
 8000e92:	2407      	movs	r4, #7
 8000e94:	0092      	lsls	r2, r2, #2
 8000e96:	1882      	adds	r2, r0, r2
 8000e98:	6a17      	ldr	r7, [r2, #32]
 8000e9a:	9203      	str	r2, [sp, #12]
 8000e9c:	220f      	movs	r2, #15
 8000e9e:	401c      	ands	r4, r3
 8000ea0:	00a4      	lsls	r4, r4, #2
 8000ea2:	40a2      	lsls	r2, r4
 8000ea4:	4397      	bics	r7, r2
 8000ea6:	690a      	ldr	r2, [r1, #16]
 8000ea8:	40a2      	lsls	r2, r4
 8000eaa:	4317      	orrs	r7, r2
 8000eac:	9a03      	ldr	r2, [sp, #12]
 8000eae:	6217      	str	r7, [r2, #32]
 8000eb0:	2403      	movs	r4, #3
 8000eb2:	6802      	ldr	r2, [r0, #0]
 8000eb4:	4015      	ands	r5, r2
 8000eb6:	9a01      	ldr	r2, [sp, #4]
 8000eb8:	4022      	ands	r2, r4
 8000eba:	40b2      	lsls	r2, r6
 8000ebc:	2480      	movs	r4, #128	; 0x80
 8000ebe:	4315      	orrs	r5, r2
 8000ec0:	9a01      	ldr	r2, [sp, #4]
 8000ec2:	0564      	lsls	r4, r4, #21
 8000ec4:	6005      	str	r5, [r0, #0]
 8000ec6:	4222      	tst	r2, r4
 8000ec8:	d04f      	beq.n	8000f6a <HAL_GPIO_Init+0x146>
 8000eca:	2501      	movs	r5, #1
 8000ecc:	270f      	movs	r7, #15
 8000ece:	4a28      	ldr	r2, [pc, #160]	; (8000f70 <HAL_GPIO_Init+0x14c>)
 8000ed0:	6994      	ldr	r4, [r2, #24]
 8000ed2:	432c      	orrs	r4, r5
 8000ed4:	6194      	str	r4, [r2, #24]
 8000ed6:	6992      	ldr	r2, [r2, #24]
 8000ed8:	089c      	lsrs	r4, r3, #2
 8000eda:	402a      	ands	r2, r5
 8000edc:	3502      	adds	r5, #2
 8000ede:	401d      	ands	r5, r3
 8000ee0:	00ad      	lsls	r5, r5, #2
 8000ee2:	40af      	lsls	r7, r5
 8000ee4:	9205      	str	r2, [sp, #20]
 8000ee6:	9a05      	ldr	r2, [sp, #20]
 8000ee8:	4a22      	ldr	r2, [pc, #136]	; (8000f74 <HAL_GPIO_Init+0x150>)
 8000eea:	00a4      	lsls	r4, r4, #2
 8000eec:	18a4      	adds	r4, r4, r2
 8000eee:	68a6      	ldr	r6, [r4, #8]
 8000ef0:	2200      	movs	r2, #0
 8000ef2:	43be      	bics	r6, r7
 8000ef4:	2790      	movs	r7, #144	; 0x90
 8000ef6:	05ff      	lsls	r7, r7, #23
 8000ef8:	42b8      	cmp	r0, r7
 8000efa:	d00c      	beq.n	8000f16 <HAL_GPIO_Init+0xf2>
 8000efc:	4f1e      	ldr	r7, [pc, #120]	; (8000f78 <HAL_GPIO_Init+0x154>)
 8000efe:	3201      	adds	r2, #1
 8000f00:	42b8      	cmp	r0, r7
 8000f02:	d008      	beq.n	8000f16 <HAL_GPIO_Init+0xf2>
 8000f04:	4f1d      	ldr	r7, [pc, #116]	; (8000f7c <HAL_GPIO_Init+0x158>)
 8000f06:	3201      	adds	r2, #1
 8000f08:	42b8      	cmp	r0, r7
 8000f0a:	d004      	beq.n	8000f16 <HAL_GPIO_Init+0xf2>
 8000f0c:	4f1c      	ldr	r7, [pc, #112]	; (8000f80 <HAL_GPIO_Init+0x15c>)
 8000f0e:	3201      	adds	r2, #1
 8000f10:	42b8      	cmp	r0, r7
 8000f12:	d000      	beq.n	8000f16 <HAL_GPIO_Init+0xf2>
 8000f14:	3202      	adds	r2, #2
 8000f16:	40aa      	lsls	r2, r5
 8000f18:	4332      	orrs	r2, r6
 8000f1a:	60a2      	str	r2, [r4, #8]
 8000f1c:	4a19      	ldr	r2, [pc, #100]	; (8000f84 <HAL_GPIO_Init+0x160>)
 8000f1e:	9c02      	ldr	r4, [sp, #8]
 8000f20:	6816      	ldr	r6, [r2, #0]
 8000f22:	9d02      	ldr	r5, [sp, #8]
 8000f24:	9f01      	ldr	r7, [sp, #4]
 8000f26:	43e4      	mvns	r4, r4
 8000f28:	4335      	orrs	r5, r6
 8000f2a:	03ff      	lsls	r7, r7, #15
 8000f2c:	d401      	bmi.n	8000f32 <HAL_GPIO_Init+0x10e>
 8000f2e:	0035      	movs	r5, r6
 8000f30:	4025      	ands	r5, r4
 8000f32:	6015      	str	r5, [r2, #0]
 8000f34:	6856      	ldr	r6, [r2, #4]
 8000f36:	9d02      	ldr	r5, [sp, #8]
 8000f38:	9f01      	ldr	r7, [sp, #4]
 8000f3a:	4335      	orrs	r5, r6
 8000f3c:	03bf      	lsls	r7, r7, #14
 8000f3e:	d401      	bmi.n	8000f44 <HAL_GPIO_Init+0x120>
 8000f40:	0035      	movs	r5, r6
 8000f42:	4025      	ands	r5, r4
 8000f44:	6055      	str	r5, [r2, #4]
 8000f46:	6896      	ldr	r6, [r2, #8]
 8000f48:	9d02      	ldr	r5, [sp, #8]
 8000f4a:	9f01      	ldr	r7, [sp, #4]
 8000f4c:	4335      	orrs	r5, r6
 8000f4e:	02ff      	lsls	r7, r7, #11
 8000f50:	d401      	bmi.n	8000f56 <HAL_GPIO_Init+0x132>
 8000f52:	0035      	movs	r5, r6
 8000f54:	4025      	ands	r5, r4
 8000f56:	6095      	str	r5, [r2, #8]
 8000f58:	68d5      	ldr	r5, [r2, #12]
 8000f5a:	9e02      	ldr	r6, [sp, #8]
 8000f5c:	9f01      	ldr	r7, [sp, #4]
 8000f5e:	432e      	orrs	r6, r5
 8000f60:	02bf      	lsls	r7, r7, #10
 8000f62:	d401      	bmi.n	8000f68 <HAL_GPIO_Init+0x144>
 8000f64:	4025      	ands	r5, r4
 8000f66:	002e      	movs	r6, r5
 8000f68:	60d6      	str	r6, [r2, #12]
 8000f6a:	3301      	adds	r3, #1
 8000f6c:	e75d      	b.n	8000e2a <HAL_GPIO_Init+0x6>
 8000f6e:	46c0      	nop			; (mov r8, r8)
 8000f70:	40021000 	.word	0x40021000
 8000f74:	40010000 	.word	0x40010000
 8000f78:	48000400 	.word	0x48000400
 8000f7c:	48000800 	.word	0x48000800
 8000f80:	48000c00 	.word	0x48000c00
 8000f84:	40010400 	.word	0x40010400

08000f88 <HAL_GPIO_WritePin>:
 8000f88:	2a00      	cmp	r2, #0
 8000f8a:	d001      	beq.n	8000f90 <HAL_GPIO_WritePin+0x8>
 8000f8c:	6181      	str	r1, [r0, #24]
 8000f8e:	4770      	bx	lr
 8000f90:	6281      	str	r1, [r0, #40]	; 0x28
 8000f92:	e7fc      	b.n	8000f8e <HAL_GPIO_WritePin+0x6>

08000f94 <HAL_GPIO_TogglePin>:
 8000f94:	6942      	ldr	r2, [r0, #20]
 8000f96:	0013      	movs	r3, r2
 8000f98:	400b      	ands	r3, r1
 8000f9a:	041b      	lsls	r3, r3, #16
 8000f9c:	4391      	bics	r1, r2
 8000f9e:	4319      	orrs	r1, r3
 8000fa0:	6181      	str	r1, [r0, #24]
 8000fa2:	4770      	bx	lr

08000fa4 <I2C_Flush_TXDR>:
 8000fa4:	6803      	ldr	r3, [r0, #0]
 8000fa6:	699a      	ldr	r2, [r3, #24]
 8000fa8:	0792      	lsls	r2, r2, #30
 8000faa:	d501      	bpl.n	8000fb0 <I2C_Flush_TXDR+0xc>
 8000fac:	2200      	movs	r2, #0
 8000fae:	629a      	str	r2, [r3, #40]	; 0x28
 8000fb0:	2201      	movs	r2, #1
 8000fb2:	6999      	ldr	r1, [r3, #24]
 8000fb4:	4211      	tst	r1, r2
 8000fb6:	d102      	bne.n	8000fbe <I2C_Flush_TXDR+0x1a>
 8000fb8:	6999      	ldr	r1, [r3, #24]
 8000fba:	430a      	orrs	r2, r1
 8000fbc:	619a      	str	r2, [r3, #24]
 8000fbe:	4770      	bx	lr

08000fc0 <I2C_IsAcknowledgeFailed>:
 8000fc0:	b5f8      	push	{r3, r4, r5, r6, r7, lr}
 8000fc2:	6803      	ldr	r3, [r0, #0]
 8000fc4:	0016      	movs	r6, r2
 8000fc6:	699a      	ldr	r2, [r3, #24]
 8000fc8:	0004      	movs	r4, r0
 8000fca:	2310      	movs	r3, #16
 8000fcc:	0010      	movs	r0, r2
 8000fce:	000d      	movs	r5, r1
 8000fd0:	2720      	movs	r7, #32
 8000fd2:	4018      	ands	r0, r3
 8000fd4:	421a      	tst	r2, r3
 8000fd6:	d118      	bne.n	800100a <I2C_IsAcknowledgeFailed+0x4a>
 8000fd8:	bdf8      	pop	{r3, r4, r5, r6, r7, pc}
 8000fda:	1c6a      	adds	r2, r5, #1
 8000fdc:	d016      	beq.n	800100c <I2C_IsAcknowledgeFailed+0x4c>
 8000fde:	f7ff fecb 	bl	8000d78 <HAL_GetTick>
 8000fe2:	1b80      	subs	r0, r0, r6
 8000fe4:	42a8      	cmp	r0, r5
 8000fe6:	d801      	bhi.n	8000fec <I2C_IsAcknowledgeFailed+0x2c>
 8000fe8:	2d00      	cmp	r5, #0
 8000fea:	d10e      	bne.n	800100a <I2C_IsAcknowledgeFailed+0x4a>
 8000fec:	2220      	movs	r2, #32
 8000fee:	6c63      	ldr	r3, [r4, #68]	; 0x44
 8000ff0:	4313      	orrs	r3, r2
 8000ff2:	6463      	str	r3, [r4, #68]	; 0x44
 8000ff4:	0023      	movs	r3, r4
 8000ff6:	3341      	adds	r3, #65	; 0x41
 8000ff8:	701a      	strb	r2, [r3, #0]
 8000ffa:	0022      	movs	r2, r4
 8000ffc:	2300      	movs	r3, #0
 8000ffe:	3242      	adds	r2, #66	; 0x42
 8001000:	3440      	adds	r4, #64	; 0x40
 8001002:	7013      	strb	r3, [r2, #0]
 8001004:	2001      	movs	r0, #1
 8001006:	7023      	strb	r3, [r4, #0]
 8001008:	e7e6      	b.n	8000fd8 <I2C_IsAcknowledgeFailed+0x18>
 800100a:	6823      	ldr	r3, [r4, #0]
 800100c:	699a      	ldr	r2, [r3, #24]
 800100e:	423a      	tst	r2, r7
 8001010:	d0e3      	beq.n	8000fda <I2C_IsAcknowledgeFailed+0x1a>
 8001012:	2210      	movs	r2, #16
 8001014:	0020      	movs	r0, r4
 8001016:	61da      	str	r2, [r3, #28]
 8001018:	61df      	str	r7, [r3, #28]
 800101a:	f7ff ffc3 	bl	8000fa4 <I2C_Flush_TXDR>
 800101e:	6822      	ldr	r2, [r4, #0]
 8001020:	4905      	ldr	r1, [pc, #20]	; (8001038 <I2C_IsAcknowledgeFailed+0x78>)
 8001022:	6853      	ldr	r3, [r2, #4]
 8001024:	400b      	ands	r3, r1
 8001026:	6053      	str	r3, [r2, #4]
 8001028:	2304      	movs	r3, #4
 800102a:	6c62      	ldr	r2, [r4, #68]	; 0x44
 800102c:	4313      	orrs	r3, r2
 800102e:	6463      	str	r3, [r4, #68]	; 0x44
 8001030:	0023      	movs	r3, r4
 8001032:	3341      	adds	r3, #65	; 0x41
 8001034:	701f      	strb	r7, [r3, #0]
 8001036:	e7e0      	b.n	8000ffa <I2C_IsAcknowledgeFailed+0x3a>
 8001038:	fe00e800 	.word	0xfe00e800

0800103c <I2C_WaitOnRXNEFlagUntilTimeout>:
 800103c:	b5f8      	push	{r3, r4, r5, r6, r7, lr}
 800103e:	0004      	movs	r4, r0
 8001040:	000d      	movs	r5, r1
 8001042:	0016      	movs	r6, r2
 8001044:	2720      	movs	r7, #32
 8001046:	2204      	movs	r2, #4
 8001048:	6823      	ldr	r3, [r4, #0]
 800104a:	699b      	ldr	r3, [r3, #24]
 800104c:	4213      	tst	r3, r2
 800104e:	d111      	bne.n	8001074 <I2C_WaitOnRXNEFlagUntilTimeout+0x38>
 8001050:	0032      	movs	r2, r6
 8001052:	0029      	movs	r1, r5
 8001054:	0020      	movs	r0, r4
 8001056:	f7ff ffb3 	bl	8000fc0 <I2C_IsAcknowledgeFailed>
 800105a:	2800      	cmp	r0, #0
 800105c:	d119      	bne.n	8001092 <I2C_WaitOnRXNEFlagUntilTimeout+0x56>
 800105e:	6823      	ldr	r3, [r4, #0]
 8001060:	699a      	ldr	r2, [r3, #24]
 8001062:	423a      	tst	r2, r7
 8001064:	d017      	beq.n	8001096 <I2C_WaitOnRXNEFlagUntilTimeout+0x5a>
 8001066:	2104      	movs	r1, #4
 8001068:	699a      	ldr	r2, [r3, #24]
 800106a:	420a      	tst	r2, r1
 800106c:	d004      	beq.n	8001078 <I2C_WaitOnRXNEFlagUntilTimeout+0x3c>
 800106e:	8d22      	ldrh	r2, [r4, #40]	; 0x28
 8001070:	2a00      	cmp	r2, #0
 8001072:	d001      	beq.n	8001078 <I2C_WaitOnRXNEFlagUntilTimeout+0x3c>
 8001074:	2000      	movs	r0, #0
 8001076:	bdf8      	pop	{r3, r4, r5, r6, r7, pc}
 8001078:	61df      	str	r7, [r3, #28]
 800107a:	685a      	ldr	r2, [r3, #4]
 800107c:	490e      	ldr	r1, [pc, #56]	; (80010b8 <I2C_WaitOnRXNEFlagUntilTimeout+0x7c>)
 800107e:	400a      	ands	r2, r1
 8001080:	605a      	str	r2, [r3, #4]
 8001082:	0022      	movs	r2, r4
 8001084:	2300      	movs	r3, #0
 8001086:	3241      	adds	r2, #65	; 0x41
 8001088:	6463      	str	r3, [r4, #68]	; 0x44
 800108a:	7017      	strb	r7, [r2, #0]
 800108c:	3440      	adds	r4, #64	; 0x40
 800108e:	7053      	strb	r3, [r2, #1]
 8001090:	7023      	strb	r3, [r4, #0]
 8001092:	2001      	movs	r0, #1
 8001094:	e7ef      	b.n	8001076 <I2C_WaitOnRXNEFlagUntilTimeout+0x3a>
 8001096:	f7ff fe6f 	bl	8000d78 <HAL_GetTick>
 800109a:	1b80      	subs	r0, r0, r6
 800109c:	42a8      	cmp	r0, r5
 800109e:	d801      	bhi.n	80010a4 <I2C_WaitOnRXNEFlagUntilTimeout+0x68>
 80010a0:	2d00      	cmp	r5, #0
 80010a2:	d1d0      	bne.n	8001046 <I2C_WaitOnRXNEFlagUntilTimeout+0xa>
 80010a4:	2220      	movs	r2, #32
 80010a6:	6c63      	ldr	r3, [r4, #68]	; 0x44
 80010a8:	4313      	orrs	r3, r2
 80010aa:	6463      	str	r3, [r4, #68]	; 0x44
 80010ac:	0023      	movs	r3, r4
 80010ae:	3341      	adds	r3, #65	; 0x41
 80010b0:	701a      	strb	r2, [r3, #0]
 80010b2:	3440      	adds	r4, #64	; 0x40
 80010b4:	2300      	movs	r3, #0
 80010b6:	e7eb      	b.n	8001090 <I2C_WaitOnRXNEFlagUntilTimeout+0x54>
 80010b8:	fe00e800 	.word	0xfe00e800

080010bc <I2C_WaitOnSTOPFlagUntilTimeout>:
 80010bc:	b5f8      	push	{r3, r4, r5, r6, r7, lr}
 80010be:	0004      	movs	r4, r0
 80010c0:	000d      	movs	r5, r1
 80010c2:	0016      	movs	r6, r2
 80010c4:	2720      	movs	r7, #32
 80010c6:	6823      	ldr	r3, [r4, #0]
 80010c8:	699b      	ldr	r3, [r3, #24]
 80010ca:	423b      	tst	r3, r7
 80010cc:	d001      	beq.n	80010d2 <I2C_WaitOnSTOPFlagUntilTimeout+0x16>
 80010ce:	2000      	movs	r0, #0
 80010d0:	bdf8      	pop	{r3, r4, r5, r6, r7, pc}
 80010d2:	0032      	movs	r2, r6
 80010d4:	0029      	movs	r1, r5
 80010d6:	0020      	movs	r0, r4
 80010d8:	f7ff ff72 	bl	8000fc0 <I2C_IsAcknowledgeFailed>
 80010dc:	2800      	cmp	r0, #0
 80010de:	d113      	bne.n	8001108 <I2C_WaitOnSTOPFlagUntilTimeout+0x4c>
 80010e0:	f7ff fe4a 	bl	8000d78 <HAL_GetTick>
 80010e4:	1b80      	subs	r0, r0, r6
 80010e6:	42a8      	cmp	r0, r5
 80010e8:	d801      	bhi.n	80010ee <I2C_WaitOnSTOPFlagUntilTimeout+0x32>
 80010ea:	2d00      	cmp	r5, #0
 80010ec:	d1eb      	bne.n	80010c6 <I2C_WaitOnSTOPFlagUntilTimeout+0xa>
 80010ee:	2220      	movs	r2, #32
 80010f0:	6c63      	ldr	r3, [r4, #68]	; 0x44
 80010f2:	4313      	orrs	r3, r2
 80010f4:	6463      	str	r3, [r4, #68]	; 0x44
 80010f6:	0023      	movs	r3, r4
 80010f8:	3341      	adds	r3, #65	; 0x41
 80010fa:	701a      	strb	r2, [r3, #0]
 80010fc:	0022      	movs	r2, r4
 80010fe:	2300      	movs	r3, #0
 8001100:	3242      	adds	r2, #66	; 0x42
 8001102:	3440      	adds	r4, #64	; 0x40
 8001104:	7013      	strb	r3, [r2, #0]
 8001106:	7023      	strb	r3, [r4, #0]
 8001108:	2001      	movs	r0, #1
 800110a:	e7e1      	b.n	80010d0 <I2C_WaitOnSTOPFlagUntilTimeout+0x14>

0800110c <I2C_WaitOnFlagUntilTimeout>:
 800110c:	b5f8      	push	{r3, r4, r5, r6, r7, lr}
 800110e:	0004      	movs	r4, r0
 8001110:	000e      	movs	r6, r1
 8001112:	0017      	movs	r7, r2
 8001114:	001d      	movs	r5, r3
 8001116:	6822      	ldr	r2, [r4, #0]
 8001118:	6993      	ldr	r3, [r2, #24]
 800111a:	4033      	ands	r3, r6
 800111c:	1b9b      	subs	r3, r3, r6
 800111e:	4259      	negs	r1, r3
 8001120:	414b      	adcs	r3, r1
 8001122:	42bb      	cmp	r3, r7
 8001124:	d001      	beq.n	800112a <I2C_WaitOnFlagUntilTimeout+0x1e>
 8001126:	2000      	movs	r0, #0
 8001128:	e017      	b.n	800115a <I2C_WaitOnFlagUntilTimeout+0x4e>
 800112a:	1c6b      	adds	r3, r5, #1
 800112c:	d0f4      	beq.n	8001118 <I2C_WaitOnFlagUntilTimeout+0xc>
 800112e:	f7ff fe23 	bl	8000d78 <HAL_GetTick>
 8001132:	9b06      	ldr	r3, [sp, #24]
 8001134:	1ac0      	subs	r0, r0, r3
 8001136:	42a8      	cmp	r0, r5
 8001138:	d801      	bhi.n	800113e <I2C_WaitOnFlagUntilTimeout+0x32>
 800113a:	2d00      	cmp	r5, #0
 800113c:	d1eb      	bne.n	8001116 <I2C_WaitOnFlagUntilTimeout+0xa>
 800113e:	2220      	movs	r2, #32
 8001140:	6c63      	ldr	r3, [r4, #68]	; 0x44
 8001142:	2001      	movs	r0, #1
 8001144:	4313      	orrs	r3, r2
 8001146:	6463      	str	r3, [r4, #68]	; 0x44
 8001148:	0023      	movs	r3, r4
 800114a:	3341      	adds	r3, #65	; 0x41
 800114c:	701a      	strb	r2, [r3, #0]
 800114e:	0022      	movs	r2, r4
 8001150:	2300      	movs	r3, #0
 8001152:	3242      	adds	r2, #66	; 0x42
 8001154:	3440      	adds	r4, #64	; 0x40
 8001156:	7013      	strb	r3, [r2, #0]
 8001158:	7023      	strb	r3, [r4, #0]
 800115a:	bdf8      	pop	{r3, r4, r5, r6, r7, pc}

0800115c <HAL_I2C_Init>:
 800115c:	b570      	push	{r4, r5, r6, lr}
 800115e:	0004      	movs	r4, r0
 8001160:	2001      	movs	r0, #1
 8001162:	2c00      	cmp	r4, #0
 8001164:	d03f      	beq.n	80011e6 <HAL_I2C_Init+0x8a>
 8001166:	0025      	movs	r5, r4
 8001168:	3541      	adds	r5, #65	; 0x41
 800116a:	782b      	ldrb	r3, [r5, #0]
 800116c:	b2da      	uxtb	r2, r3
 800116e:	2b00      	cmp	r3, #0
 8001170:	d105      	bne.n	800117e <HAL_I2C_Init+0x22>
 8001172:	0023      	movs	r3, r4
 8001174:	3340      	adds	r3, #64	; 0x40
 8001176:	0020      	movs	r0, r4
 8001178:	701a      	strb	r2, [r3, #0]
 800117a:	f7ff fcb9 	bl	8000af0 <HAL_I2C_MspInit>
 800117e:	2324      	movs	r3, #36	; 0x24
 8001180:	2101      	movs	r1, #1
 8001182:	702b      	strb	r3, [r5, #0]
 8001184:	6823      	ldr	r3, [r4, #0]
 8001186:	68e0      	ldr	r0, [r4, #12]
 8001188:	681a      	ldr	r2, [r3, #0]
 800118a:	68a6      	ldr	r6, [r4, #8]
 800118c:	438a      	bics	r2, r1
 800118e:	601a      	str	r2, [r3, #0]
 8001190:	6861      	ldr	r1, [r4, #4]
 8001192:	4a1a      	ldr	r2, [pc, #104]	; (80011fc <HAL_I2C_Init+0xa0>)
 8001194:	400a      	ands	r2, r1
 8001196:	611a      	str	r2, [r3, #16]
 8001198:	6899      	ldr	r1, [r3, #8]
 800119a:	4a19      	ldr	r2, [pc, #100]	; (8001200 <HAL_I2C_Init+0xa4>)
 800119c:	4011      	ands	r1, r2
 800119e:	6099      	str	r1, [r3, #8]
 80011a0:	2801      	cmp	r0, #1
 80011a2:	d121      	bne.n	80011e8 <HAL_I2C_Init+0x8c>
 80011a4:	2180      	movs	r1, #128	; 0x80
 80011a6:	0209      	lsls	r1, r1, #8
 80011a8:	4331      	orrs	r1, r6
 80011aa:	6099      	str	r1, [r3, #8]
 80011ac:	6858      	ldr	r0, [r3, #4]
 80011ae:	4915      	ldr	r1, [pc, #84]	; (8001204 <HAL_I2C_Init+0xa8>)
 80011b0:	4301      	orrs	r1, r0
 80011b2:	6059      	str	r1, [r3, #4]
 80011b4:	68d9      	ldr	r1, [r3, #12]
 80011b6:	2000      	movs	r0, #0
 80011b8:	400a      	ands	r2, r1
 80011ba:	60da      	str	r2, [r3, #12]
 80011bc:	6961      	ldr	r1, [r4, #20]
 80011be:	6922      	ldr	r2, [r4, #16]
 80011c0:	430a      	orrs	r2, r1
 80011c2:	69a1      	ldr	r1, [r4, #24]
 80011c4:	0209      	lsls	r1, r1, #8
 80011c6:	430a      	orrs	r2, r1
 80011c8:	60da      	str	r2, [r3, #12]
 80011ca:	6a21      	ldr	r1, [r4, #32]
 80011cc:	69e2      	ldr	r2, [r4, #28]
 80011ce:	430a      	orrs	r2, r1
 80011d0:	601a      	str	r2, [r3, #0]
 80011d2:	2201      	movs	r2, #1
 80011d4:	6819      	ldr	r1, [r3, #0]
 80011d6:	430a      	orrs	r2, r1
 80011d8:	601a      	str	r2, [r3, #0]
 80011da:	2320      	movs	r3, #32
 80011dc:	6460      	str	r0, [r4, #68]	; 0x44
 80011de:	702b      	strb	r3, [r5, #0]
 80011e0:	6320      	str	r0, [r4, #48]	; 0x30
 80011e2:	3442      	adds	r4, #66	; 0x42
 80011e4:	7020      	strb	r0, [r4, #0]
 80011e6:	bd70      	pop	{r4, r5, r6, pc}
 80011e8:	2184      	movs	r1, #132	; 0x84
 80011ea:	0209      	lsls	r1, r1, #8
 80011ec:	4331      	orrs	r1, r6
 80011ee:	6099      	str	r1, [r3, #8]
 80011f0:	2802      	cmp	r0, #2
 80011f2:	d1db      	bne.n	80011ac <HAL_I2C_Init+0x50>
 80011f4:	2180      	movs	r1, #128	; 0x80
 80011f6:	0109      	lsls	r1, r1, #4
 80011f8:	6059      	str	r1, [r3, #4]
 80011fa:	e7d7      	b.n	80011ac <HAL_I2C_Init+0x50>
 80011fc:	f0ffffff 	.word	0xf0ffffff
 8001200:	ffff7fff 	.word	0xffff7fff
 8001204:	02008000 	.word	0x02008000

08001208 <HAL_I2C_Slave_Receive>:
 8001208:	b5f0      	push	{r4, r5, r6, r7, lr}
 800120a:	001f      	movs	r7, r3
 800120c:	0003      	movs	r3, r0
 800120e:	b089      	sub	sp, #36	; 0x24
 8001210:	3341      	adds	r3, #65	; 0x41
 8001212:	9205      	str	r2, [sp, #20]
 8001214:	9104      	str	r1, [sp, #16]
 8001216:	9303      	str	r3, [sp, #12]
 8001218:	781b      	ldrb	r3, [r3, #0]
 800121a:	0004      	movs	r4, r0
 800121c:	b2da      	uxtb	r2, r3
 800121e:	2002      	movs	r0, #2
 8001220:	9207      	str	r2, [sp, #28]
 8001222:	2b20      	cmp	r3, #32
 8001224:	d108      	bne.n	8001238 <HAL_I2C_Slave_Receive+0x30>
 8001226:	2900      	cmp	r1, #0
 8001228:	d002      	beq.n	8001230 <HAL_I2C_Slave_Receive+0x28>
 800122a:	9b05      	ldr	r3, [sp, #20]
 800122c:	2b00      	cmp	r3, #0
 800122e:	d105      	bne.n	800123c <HAL_I2C_Slave_Receive+0x34>
 8001230:	2380      	movs	r3, #128	; 0x80
 8001232:	009b      	lsls	r3, r3, #2
 8001234:	6463      	str	r3, [r4, #68]	; 0x44
 8001236:	2001      	movs	r0, #1
 8001238:	b009      	add	sp, #36	; 0x24
 800123a:	bdf0      	pop	{r4, r5, r6, r7, pc}
 800123c:	0023      	movs	r3, r4
 800123e:	3340      	adds	r3, #64	; 0x40
 8001240:	781a      	ldrb	r2, [r3, #0]
 8001242:	2002      	movs	r0, #2
 8001244:	2a01      	cmp	r2, #1
 8001246:	d0f7      	beq.n	8001238 <HAL_I2C_Slave_Receive+0x30>
 8001248:	2501      	movs	r5, #1
 800124a:	701d      	strb	r5, [r3, #0]
 800124c:	f7ff fd94 	bl	8000d78 <HAL_GetTick>
 8001250:	2322      	movs	r3, #34	; 0x22
 8001252:	9a03      	ldr	r2, [sp, #12]
 8001254:	0006      	movs	r6, r0
 8001256:	7013      	strb	r3, [r2, #0]
 8001258:	0023      	movs	r3, r4
 800125a:	9a07      	ldr	r2, [sp, #28]
 800125c:	3342      	adds	r3, #66	; 0x42
 800125e:	701a      	strb	r2, [r3, #0]
 8001260:	2200      	movs	r2, #0
 8001262:	9306      	str	r3, [sp, #24]
 8001264:	9b04      	ldr	r3, [sp, #16]
 8001266:	6821      	ldr	r1, [r4, #0]
 8001268:	6263      	str	r3, [r4, #36]	; 0x24
 800126a:	9b05      	ldr	r3, [sp, #20]
 800126c:	6462      	str	r2, [r4, #68]	; 0x44
 800126e:	8563      	strh	r3, [r4, #42]	; 0x2a
 8001270:	684b      	ldr	r3, [r1, #4]
 8001272:	4839      	ldr	r0, [pc, #228]	; (8001358 <HAL_I2C_Slave_Receive+0x150>)
 8001274:	6362      	str	r2, [r4, #52]	; 0x34
 8001276:	4003      	ands	r3, r0
 8001278:	604b      	str	r3, [r1, #4]
 800127a:	0020      	movs	r0, r4
 800127c:	003b      	movs	r3, r7
 800127e:	2108      	movs	r1, #8
 8001280:	9600      	str	r6, [sp, #0]
 8001282:	f7ff ff43 	bl	800110c <I2C_WaitOnFlagUntilTimeout>
 8001286:	6823      	ldr	r3, [r4, #0]
 8001288:	2800      	cmp	r0, #0
 800128a:	d005      	beq.n	8001298 <HAL_I2C_Slave_Receive+0x90>
 800128c:	2280      	movs	r2, #128	; 0x80
 800128e:	6859      	ldr	r1, [r3, #4]
 8001290:	0212      	lsls	r2, r2, #8
 8001292:	430a      	orrs	r2, r1
 8001294:	605a      	str	r2, [r3, #4]
 8001296:	e7ce      	b.n	8001236 <HAL_I2C_Slave_Receive+0x2e>
 8001298:	2208      	movs	r2, #8
 800129a:	2180      	movs	r1, #128	; 0x80
 800129c:	61da      	str	r2, [r3, #28]
 800129e:	0020      	movs	r0, r4
 80012a0:	003b      	movs	r3, r7
 80012a2:	002a      	movs	r2, r5
 80012a4:	9600      	str	r6, [sp, #0]
 80012a6:	0249      	lsls	r1, r1, #9
 80012a8:	f7ff ff30 	bl	800110c <I2C_WaitOnFlagUntilTimeout>
 80012ac:	2800      	cmp	r0, #0
 80012ae:	d029      	beq.n	8001304 <HAL_I2C_Slave_Receive+0xfc>
 80012b0:	2380      	movs	r3, #128	; 0x80
 80012b2:	6822      	ldr	r2, [r4, #0]
 80012b4:	021b      	lsls	r3, r3, #8
 80012b6:	6851      	ldr	r1, [r2, #4]
 80012b8:	430b      	orrs	r3, r1
 80012ba:	6053      	str	r3, [r2, #4]
 80012bc:	e7bb      	b.n	8001236 <HAL_I2C_Slave_Receive+0x2e>
 80012be:	f7ff febd 	bl	800103c <I2C_WaitOnRXNEFlagUntilTimeout>
 80012c2:	6823      	ldr	r3, [r4, #0]
 80012c4:	2800      	cmp	r0, #0
 80012c6:	d013      	beq.n	80012f0 <HAL_I2C_Slave_Receive+0xe8>
 80012c8:	2280      	movs	r2, #128	; 0x80
 80012ca:	6859      	ldr	r1, [r3, #4]
 80012cc:	0212      	lsls	r2, r2, #8
 80012ce:	430a      	orrs	r2, r1
 80012d0:	605a      	str	r2, [r3, #4]
 80012d2:	699a      	ldr	r2, [r3, #24]
 80012d4:	2001      	movs	r0, #1
 80012d6:	0752      	lsls	r2, r2, #29
 80012d8:	d5ae      	bpl.n	8001238 <HAL_I2C_Slave_Receive+0x30>
 80012da:	6a5b      	ldr	r3, [r3, #36]	; 0x24
 80012dc:	6a62      	ldr	r2, [r4, #36]	; 0x24
 80012de:	7013      	strb	r3, [r2, #0]
 80012e0:	6a63      	ldr	r3, [r4, #36]	; 0x24
 80012e2:	181b      	adds	r3, r3, r0
 80012e4:	6263      	str	r3, [r4, #36]	; 0x24
 80012e6:	8d63      	ldrh	r3, [r4, #42]	; 0x2a
 80012e8:	3b01      	subs	r3, #1
 80012ea:	b29b      	uxth	r3, r3
 80012ec:	8563      	strh	r3, [r4, #42]	; 0x2a
 80012ee:	e7a3      	b.n	8001238 <HAL_I2C_Slave_Receive+0x30>
 80012f0:	6a5b      	ldr	r3, [r3, #36]	; 0x24
 80012f2:	6a62      	ldr	r2, [r4, #36]	; 0x24
 80012f4:	7013      	strb	r3, [r2, #0]
 80012f6:	6a63      	ldr	r3, [r4, #36]	; 0x24
 80012f8:	3301      	adds	r3, #1
 80012fa:	6263      	str	r3, [r4, #36]	; 0x24
 80012fc:	8d63      	ldrh	r3, [r4, #42]	; 0x2a
 80012fe:	3b01      	subs	r3, #1
 8001300:	b29b      	uxth	r3, r3
 8001302:	8563      	strh	r3, [r4, #42]	; 0x2a
 8001304:	8d63      	ldrh	r3, [r4, #42]	; 0x2a
 8001306:	0032      	movs	r2, r6
 8001308:	0039      	movs	r1, r7
 800130a:	0020      	movs	r0, r4
 800130c:	2b00      	cmp	r3, #0
 800130e:	d1d6      	bne.n	80012be <HAL_I2C_Slave_Receive+0xb6>
 8001310:	f7ff fed4 	bl	80010bc <I2C_WaitOnSTOPFlagUntilTimeout>
 8001314:	2580      	movs	r5, #128	; 0x80
 8001316:	6823      	ldr	r3, [r4, #0]
 8001318:	022d      	lsls	r5, r5, #8
 800131a:	2800      	cmp	r0, #0
 800131c:	d003      	beq.n	8001326 <HAL_I2C_Slave_Receive+0x11e>
 800131e:	685a      	ldr	r2, [r3, #4]
 8001320:	4315      	orrs	r5, r2
 8001322:	605d      	str	r5, [r3, #4]
 8001324:	e787      	b.n	8001236 <HAL_I2C_Slave_Receive+0x2e>
 8001326:	2220      	movs	r2, #32
 8001328:	0029      	movs	r1, r5
 800132a:	61da      	str	r2, [r3, #28]
 800132c:	0020      	movs	r0, r4
 800132e:	003b      	movs	r3, r7
 8001330:	3a1f      	subs	r2, #31
 8001332:	9600      	str	r6, [sp, #0]
 8001334:	f7ff feea 	bl	800110c <I2C_WaitOnFlagUntilTimeout>
 8001338:	6823      	ldr	r3, [r4, #0]
 800133a:	685a      	ldr	r2, [r3, #4]
 800133c:	4315      	orrs	r5, r2
 800133e:	605d      	str	r5, [r3, #4]
 8001340:	2800      	cmp	r0, #0
 8001342:	d000      	beq.n	8001346 <HAL_I2C_Slave_Receive+0x13e>
 8001344:	e777      	b.n	8001236 <HAL_I2C_Slave_Receive+0x2e>
 8001346:	2220      	movs	r2, #32
 8001348:	9b03      	ldr	r3, [sp, #12]
 800134a:	3440      	adds	r4, #64	; 0x40
 800134c:	701a      	strb	r2, [r3, #0]
 800134e:	9b06      	ldr	r3, [sp, #24]
 8001350:	7018      	strb	r0, [r3, #0]
 8001352:	7020      	strb	r0, [r4, #0]
 8001354:	e770      	b.n	8001238 <HAL_I2C_Slave_Receive+0x30>
 8001356:	46c0      	nop			; (mov r8, r8)
 8001358:	ffff7fff 	.word	0xffff7fff

0800135c <HAL_I2CEx_ConfigAnalogFilter>:
 800135c:	b5f0      	push	{r4, r5, r6, r7, lr}
 800135e:	0004      	movs	r4, r0
 8001360:	3441      	adds	r4, #65	; 0x41
 8001362:	7822      	ldrb	r2, [r4, #0]
 8001364:	0003      	movs	r3, r0
 8001366:	000f      	movs	r7, r1
 8001368:	2002      	movs	r0, #2
 800136a:	b2d6      	uxtb	r6, r2
 800136c:	2a20      	cmp	r2, #32
 800136e:	d118      	bne.n	80013a2 <HAL_I2CEx_ConfigAnalogFilter+0x46>
 8001370:	001d      	movs	r5, r3
 8001372:	3540      	adds	r5, #64	; 0x40
 8001374:	782a      	ldrb	r2, [r5, #0]
 8001376:	2a01      	cmp	r2, #1
 8001378:	d013      	beq.n	80013a2 <HAL_I2CEx_ConfigAnalogFilter+0x46>
 800137a:	2224      	movs	r2, #36	; 0x24
 800137c:	7022      	strb	r2, [r4, #0]
 800137e:	681b      	ldr	r3, [r3, #0]
 8001380:	3a23      	subs	r2, #35	; 0x23
 8001382:	6819      	ldr	r1, [r3, #0]
 8001384:	4807      	ldr	r0, [pc, #28]	; (80013a4 <HAL_I2CEx_ConfigAnalogFilter+0x48>)
 8001386:	4391      	bics	r1, r2
 8001388:	6019      	str	r1, [r3, #0]
 800138a:	6819      	ldr	r1, [r3, #0]
 800138c:	4001      	ands	r1, r0
 800138e:	2000      	movs	r0, #0
 8001390:	6019      	str	r1, [r3, #0]
 8001392:	6819      	ldr	r1, [r3, #0]
 8001394:	4339      	orrs	r1, r7
 8001396:	6019      	str	r1, [r3, #0]
 8001398:	6819      	ldr	r1, [r3, #0]
 800139a:	430a      	orrs	r2, r1
 800139c:	601a      	str	r2, [r3, #0]
 800139e:	7026      	strb	r6, [r4, #0]
 80013a0:	7028      	strb	r0, [r5, #0]
 80013a2:	bdf0      	pop	{r4, r5, r6, r7, pc}
 80013a4:	ffffefff 	.word	0xffffefff

080013a8 <HAL_I2CEx_ConfigDigitalFilter>:
 80013a8:	0002      	movs	r2, r0
 80013aa:	b5f0      	push	{r4, r5, r6, r7, lr}
 80013ac:	3241      	adds	r2, #65	; 0x41
 80013ae:	7814      	ldrb	r4, [r2, #0]
 80013b0:	0003      	movs	r3, r0
 80013b2:	b2e5      	uxtb	r5, r4
 80013b4:	2002      	movs	r0, #2
 80013b6:	2c20      	cmp	r4, #32
 80013b8:	d117      	bne.n	80013ea <HAL_I2CEx_ConfigDigitalFilter+0x42>
 80013ba:	001c      	movs	r4, r3
 80013bc:	3440      	adds	r4, #64	; 0x40
 80013be:	7826      	ldrb	r6, [r4, #0]
 80013c0:	2e01      	cmp	r6, #1
 80013c2:	d012      	beq.n	80013ea <HAL_I2CEx_ConfigDigitalFilter+0x42>
 80013c4:	3022      	adds	r0, #34	; 0x22
 80013c6:	7010      	strb	r0, [r2, #0]
 80013c8:	681b      	ldr	r3, [r3, #0]
 80013ca:	3823      	subs	r0, #35	; 0x23
 80013cc:	681e      	ldr	r6, [r3, #0]
 80013ce:	4f07      	ldr	r7, [pc, #28]	; (80013ec <HAL_I2CEx_ConfigDigitalFilter+0x44>)
 80013d0:	4386      	bics	r6, r0
 80013d2:	601e      	str	r6, [r3, #0]
 80013d4:	681e      	ldr	r6, [r3, #0]
 80013d6:	0209      	lsls	r1, r1, #8
 80013d8:	403e      	ands	r6, r7
 80013da:	4331      	orrs	r1, r6
 80013dc:	6019      	str	r1, [r3, #0]
 80013de:	6819      	ldr	r1, [r3, #0]
 80013e0:	4308      	orrs	r0, r1
 80013e2:	6018      	str	r0, [r3, #0]
 80013e4:	2000      	movs	r0, #0
 80013e6:	7015      	strb	r5, [r2, #0]
 80013e8:	7020      	strb	r0, [r4, #0]
 80013ea:	bdf0      	pop	{r4, r5, r6, r7, pc}
 80013ec:	fffff0ff 	.word	0xfffff0ff

080013f0 <HAL_RCC_OscConfig>:
 80013f0:	b5f0      	push	{r4, r5, r6, r7, lr}
 80013f2:	0004      	movs	r4, r0
 80013f4:	b085      	sub	sp, #20
 80013f6:	2800      	cmp	r0, #0
 80013f8:	d045      	beq.n	8001486 <HAL_RCC_OscConfig+0x96>
 80013fa:	6803      	ldr	r3, [r0, #0]
 80013fc:	07db      	lsls	r3, r3, #31
 80013fe:	d42f      	bmi.n	8001460 <HAL_RCC_OscConfig+0x70>
 8001400:	6823      	ldr	r3, [r4, #0]
 8001402:	079b      	lsls	r3, r3, #30
 8001404:	d500      	bpl.n	8001408 <HAL_RCC_OscConfig+0x18>
 8001406:	e081      	b.n	800150c <HAL_RCC_OscConfig+0x11c>
 8001408:	6823      	ldr	r3, [r4, #0]
 800140a:	071b      	lsls	r3, r3, #28
 800140c:	d500      	bpl.n	8001410 <HAL_RCC_OscConfig+0x20>
 800140e:	e0bc      	b.n	800158a <HAL_RCC_OscConfig+0x19a>
 8001410:	6823      	ldr	r3, [r4, #0]
 8001412:	075b      	lsls	r3, r3, #29
 8001414:	d500      	bpl.n	8001418 <HAL_RCC_OscConfig+0x28>
 8001416:	e0df      	b.n	80015d8 <HAL_RCC_OscConfig+0x1e8>
 8001418:	6823      	ldr	r3, [r4, #0]
 800141a:	06db      	lsls	r3, r3, #27
 800141c:	d51a      	bpl.n	8001454 <HAL_RCC_OscConfig+0x64>
 800141e:	6962      	ldr	r2, [r4, #20]
 8001420:	2304      	movs	r3, #4
 8001422:	4db5      	ldr	r5, [pc, #724]	; (80016f8 <HAL_RCC_OscConfig+0x308>)
 8001424:	2a01      	cmp	r2, #1
 8001426:	d000      	beq.n	800142a <HAL_RCC_OscConfig+0x3a>
 8001428:	e14a      	b.n	80016c0 <HAL_RCC_OscConfig+0x2d0>
 800142a:	6b69      	ldr	r1, [r5, #52]	; 0x34
 800142c:	2702      	movs	r7, #2
 800142e:	430b      	orrs	r3, r1
 8001430:	636b      	str	r3, [r5, #52]	; 0x34
 8001432:	6b6b      	ldr	r3, [r5, #52]	; 0x34
 8001434:	431a      	orrs	r2, r3
 8001436:	636a      	str	r2, [r5, #52]	; 0x34
 8001438:	f7ff fc9e 	bl	8000d78 <HAL_GetTick>
 800143c:	0006      	movs	r6, r0
 800143e:	6b6b      	ldr	r3, [r5, #52]	; 0x34
 8001440:	423b      	tst	r3, r7
 8001442:	d100      	bne.n	8001446 <HAL_RCC_OscConfig+0x56>
 8001444:	e135      	b.n	80016b2 <HAL_RCC_OscConfig+0x2c2>
 8001446:	21f8      	movs	r1, #248	; 0xf8
 8001448:	6b6a      	ldr	r2, [r5, #52]	; 0x34
 800144a:	69a3      	ldr	r3, [r4, #24]
 800144c:	438a      	bics	r2, r1
 800144e:	00db      	lsls	r3, r3, #3
 8001450:	4313      	orrs	r3, r2
 8001452:	636b      	str	r3, [r5, #52]	; 0x34
 8001454:	6a23      	ldr	r3, [r4, #32]
 8001456:	2b00      	cmp	r3, #0
 8001458:	d000      	beq.n	800145c <HAL_RCC_OscConfig+0x6c>
 800145a:	e159      	b.n	8001710 <HAL_RCC_OscConfig+0x320>
 800145c:	2000      	movs	r0, #0
 800145e:	e02a      	b.n	80014b6 <HAL_RCC_OscConfig+0xc6>
 8001460:	210c      	movs	r1, #12
 8001462:	4da5      	ldr	r5, [pc, #660]	; (80016f8 <HAL_RCC_OscConfig+0x308>)
 8001464:	686a      	ldr	r2, [r5, #4]
 8001466:	400a      	ands	r2, r1
 8001468:	2a04      	cmp	r2, #4
 800146a:	d006      	beq.n	800147a <HAL_RCC_OscConfig+0x8a>
 800146c:	686b      	ldr	r3, [r5, #4]
 800146e:	400b      	ands	r3, r1
 8001470:	2b08      	cmp	r3, #8
 8001472:	d10a      	bne.n	800148a <HAL_RCC_OscConfig+0x9a>
 8001474:	686b      	ldr	r3, [r5, #4]
 8001476:	03db      	lsls	r3, r3, #15
 8001478:	d507      	bpl.n	800148a <HAL_RCC_OscConfig+0x9a>
 800147a:	682b      	ldr	r3, [r5, #0]
 800147c:	039b      	lsls	r3, r3, #14
 800147e:	d5bf      	bpl.n	8001400 <HAL_RCC_OscConfig+0x10>
 8001480:	6863      	ldr	r3, [r4, #4]
 8001482:	2b00      	cmp	r3, #0
 8001484:	d1bc      	bne.n	8001400 <HAL_RCC_OscConfig+0x10>
 8001486:	2001      	movs	r0, #1
 8001488:	e015      	b.n	80014b6 <HAL_RCC_OscConfig+0xc6>
 800148a:	6863      	ldr	r3, [r4, #4]
 800148c:	2b01      	cmp	r3, #1
 800148e:	d114      	bne.n	80014ba <HAL_RCC_OscConfig+0xca>
 8001490:	2380      	movs	r3, #128	; 0x80
 8001492:	682a      	ldr	r2, [r5, #0]
 8001494:	025b      	lsls	r3, r3, #9
 8001496:	4313      	orrs	r3, r2
 8001498:	602b      	str	r3, [r5, #0]
 800149a:	f7ff fc6d 	bl	8000d78 <HAL_GetTick>
 800149e:	2780      	movs	r7, #128	; 0x80
 80014a0:	0006      	movs	r6, r0
 80014a2:	02bf      	lsls	r7, r7, #10
 80014a4:	682b      	ldr	r3, [r5, #0]
 80014a6:	423b      	tst	r3, r7
 80014a8:	d1aa      	bne.n	8001400 <HAL_RCC_OscConfig+0x10>
 80014aa:	f7ff fc65 	bl	8000d78 <HAL_GetTick>
 80014ae:	1b80      	subs	r0, r0, r6
 80014b0:	2864      	cmp	r0, #100	; 0x64
 80014b2:	d9f7      	bls.n	80014a4 <HAL_RCC_OscConfig+0xb4>
 80014b4:	2003      	movs	r0, #3
 80014b6:	b005      	add	sp, #20
 80014b8:	bdf0      	pop	{r4, r5, r6, r7, pc}
 80014ba:	2b00      	cmp	r3, #0
 80014bc:	d116      	bne.n	80014ec <HAL_RCC_OscConfig+0xfc>
 80014be:	682b      	ldr	r3, [r5, #0]
 80014c0:	4a8e      	ldr	r2, [pc, #568]	; (80016fc <HAL_RCC_OscConfig+0x30c>)
 80014c2:	2780      	movs	r7, #128	; 0x80
 80014c4:	4013      	ands	r3, r2
 80014c6:	602b      	str	r3, [r5, #0]
 80014c8:	682b      	ldr	r3, [r5, #0]
 80014ca:	4a8d      	ldr	r2, [pc, #564]	; (8001700 <HAL_RCC_OscConfig+0x310>)
 80014cc:	02bf      	lsls	r7, r7, #10
 80014ce:	4013      	ands	r3, r2
 80014d0:	602b      	str	r3, [r5, #0]
 80014d2:	f7ff fc51 	bl	8000d78 <HAL_GetTick>
 80014d6:	0006      	movs	r6, r0
 80014d8:	682b      	ldr	r3, [r5, #0]
 80014da:	423b      	tst	r3, r7
 80014dc:	d100      	bne.n	80014e0 <HAL_RCC_OscConfig+0xf0>
 80014de:	e78f      	b.n	8001400 <HAL_RCC_OscConfig+0x10>
 80014e0:	f7ff fc4a 	bl	8000d78 <HAL_GetTick>
 80014e4:	1b80      	subs	r0, r0, r6
 80014e6:	2864      	cmp	r0, #100	; 0x64
 80014e8:	d9f6      	bls.n	80014d8 <HAL_RCC_OscConfig+0xe8>
 80014ea:	e7e3      	b.n	80014b4 <HAL_RCC_OscConfig+0xc4>
 80014ec:	2b05      	cmp	r3, #5
 80014ee:	d105      	bne.n	80014fc <HAL_RCC_OscConfig+0x10c>
 80014f0:	2380      	movs	r3, #128	; 0x80
 80014f2:	682a      	ldr	r2, [r5, #0]
 80014f4:	02db      	lsls	r3, r3, #11
 80014f6:	4313      	orrs	r3, r2
 80014f8:	602b      	str	r3, [r5, #0]
 80014fa:	e7c9      	b.n	8001490 <HAL_RCC_OscConfig+0xa0>
 80014fc:	682b      	ldr	r3, [r5, #0]
 80014fe:	4a7f      	ldr	r2, [pc, #508]	; (80016fc <HAL_RCC_OscConfig+0x30c>)
 8001500:	4013      	ands	r3, r2
 8001502:	602b      	str	r3, [r5, #0]
 8001504:	682b      	ldr	r3, [r5, #0]
 8001506:	4a7e      	ldr	r2, [pc, #504]	; (8001700 <HAL_RCC_OscConfig+0x310>)
 8001508:	4013      	ands	r3, r2
 800150a:	e7c5      	b.n	8001498 <HAL_RCC_OscConfig+0xa8>
 800150c:	220c      	movs	r2, #12
 800150e:	4d7a      	ldr	r5, [pc, #488]	; (80016f8 <HAL_RCC_OscConfig+0x308>)
 8001510:	686b      	ldr	r3, [r5, #4]
 8001512:	4213      	tst	r3, r2
 8001514:	d006      	beq.n	8001524 <HAL_RCC_OscConfig+0x134>
 8001516:	686b      	ldr	r3, [r5, #4]
 8001518:	4013      	ands	r3, r2
 800151a:	2b08      	cmp	r3, #8
 800151c:	d110      	bne.n	8001540 <HAL_RCC_OscConfig+0x150>
 800151e:	686b      	ldr	r3, [r5, #4]
 8001520:	03db      	lsls	r3, r3, #15
 8001522:	d40d      	bmi.n	8001540 <HAL_RCC_OscConfig+0x150>
 8001524:	682b      	ldr	r3, [r5, #0]
 8001526:	079b      	lsls	r3, r3, #30
 8001528:	d502      	bpl.n	8001530 <HAL_RCC_OscConfig+0x140>
 800152a:	68e3      	ldr	r3, [r4, #12]
 800152c:	2b01      	cmp	r3, #1
 800152e:	d1aa      	bne.n	8001486 <HAL_RCC_OscConfig+0x96>
 8001530:	21f8      	movs	r1, #248	; 0xf8
 8001532:	682a      	ldr	r2, [r5, #0]
 8001534:	6923      	ldr	r3, [r4, #16]
 8001536:	438a      	bics	r2, r1
 8001538:	00db      	lsls	r3, r3, #3
 800153a:	4313      	orrs	r3, r2
 800153c:	602b      	str	r3, [r5, #0]
 800153e:	e763      	b.n	8001408 <HAL_RCC_OscConfig+0x18>
 8001540:	68e2      	ldr	r2, [r4, #12]
 8001542:	2301      	movs	r3, #1
 8001544:	2a00      	cmp	r2, #0
 8001546:	d00f      	beq.n	8001568 <HAL_RCC_OscConfig+0x178>
 8001548:	682a      	ldr	r2, [r5, #0]
 800154a:	2702      	movs	r7, #2
 800154c:	4313      	orrs	r3, r2
 800154e:	602b      	str	r3, [r5, #0]
 8001550:	f7ff fc12 	bl	8000d78 <HAL_GetTick>
 8001554:	0006      	movs	r6, r0
 8001556:	682b      	ldr	r3, [r5, #0]
 8001558:	423b      	tst	r3, r7
 800155a:	d1e9      	bne.n	8001530 <HAL_RCC_OscConfig+0x140>
 800155c:	f7ff fc0c 	bl	8000d78 <HAL_GetTick>
 8001560:	1b80      	subs	r0, r0, r6
 8001562:	2802      	cmp	r0, #2
 8001564:	d9f7      	bls.n	8001556 <HAL_RCC_OscConfig+0x166>
 8001566:	e7a5      	b.n	80014b4 <HAL_RCC_OscConfig+0xc4>
 8001568:	682a      	ldr	r2, [r5, #0]
 800156a:	2702      	movs	r7, #2
 800156c:	439a      	bics	r2, r3
 800156e:	602a      	str	r2, [r5, #0]
 8001570:	f7ff fc02 	bl	8000d78 <HAL_GetTick>
 8001574:	0006      	movs	r6, r0
 8001576:	682b      	ldr	r3, [r5, #0]
 8001578:	423b      	tst	r3, r7
 800157a:	d100      	bne.n	800157e <HAL_RCC_OscConfig+0x18e>
 800157c:	e744      	b.n	8001408 <HAL_RCC_OscConfig+0x18>
 800157e:	f7ff fbfb 	bl	8000d78 <HAL_GetTick>
 8001582:	1b80      	subs	r0, r0, r6
 8001584:	2802      	cmp	r0, #2
 8001586:	d9f6      	bls.n	8001576 <HAL_RCC_OscConfig+0x186>
 8001588:	e794      	b.n	80014b4 <HAL_RCC_OscConfig+0xc4>
 800158a:	69e2      	ldr	r2, [r4, #28]
 800158c:	2301      	movs	r3, #1
 800158e:	4d5a      	ldr	r5, [pc, #360]	; (80016f8 <HAL_RCC_OscConfig+0x308>)
 8001590:	2a00      	cmp	r2, #0
 8001592:	d010      	beq.n	80015b6 <HAL_RCC_OscConfig+0x1c6>
 8001594:	6a6a      	ldr	r2, [r5, #36]	; 0x24
 8001596:	2702      	movs	r7, #2
 8001598:	4313      	orrs	r3, r2
 800159a:	626b      	str	r3, [r5, #36]	; 0x24
 800159c:	f7ff fbec 	bl	8000d78 <HAL_GetTick>
 80015a0:	0006      	movs	r6, r0
 80015a2:	6a6b      	ldr	r3, [r5, #36]	; 0x24
 80015a4:	423b      	tst	r3, r7
 80015a6:	d000      	beq.n	80015aa <HAL_RCC_OscConfig+0x1ba>
 80015a8:	e732      	b.n	8001410 <HAL_RCC_OscConfig+0x20>
 80015aa:	f7ff fbe5 	bl	8000d78 <HAL_GetTick>
 80015ae:	1b80      	subs	r0, r0, r6
 80015b0:	2802      	cmp	r0, #2
 80015b2:	d9f6      	bls.n	80015a2 <HAL_RCC_OscConfig+0x1b2>
 80015b4:	e77e      	b.n	80014b4 <HAL_RCC_OscConfig+0xc4>
 80015b6:	6a6a      	ldr	r2, [r5, #36]	; 0x24
 80015b8:	2702      	movs	r7, #2
 80015ba:	439a      	bics	r2, r3
 80015bc:	626a      	str	r2, [r5, #36]	; 0x24
 80015be:	f7ff fbdb 	bl	8000d78 <HAL_GetTick>
 80015c2:	0006      	movs	r6, r0
 80015c4:	6a6b      	ldr	r3, [r5, #36]	; 0x24
 80015c6:	423b      	tst	r3, r7
 80015c8:	d100      	bne.n	80015cc <HAL_RCC_OscConfig+0x1dc>
 80015ca:	e721      	b.n	8001410 <HAL_RCC_OscConfig+0x20>
 80015cc:	f7ff fbd4 	bl	8000d78 <HAL_GetTick>
 80015d0:	1b80      	subs	r0, r0, r6
 80015d2:	2802      	cmp	r0, #2
 80015d4:	d9f6      	bls.n	80015c4 <HAL_RCC_OscConfig+0x1d4>
 80015d6:	e76d      	b.n	80014b4 <HAL_RCC_OscConfig+0xc4>
 80015d8:	2280      	movs	r2, #128	; 0x80
 80015da:	2100      	movs	r1, #0
 80015dc:	4d46      	ldr	r5, [pc, #280]	; (80016f8 <HAL_RCC_OscConfig+0x308>)
 80015de:	0552      	lsls	r2, r2, #21
 80015e0:	69eb      	ldr	r3, [r5, #28]
 80015e2:	9100      	str	r1, [sp, #0]
 80015e4:	4213      	tst	r3, r2
 80015e6:	d108      	bne.n	80015fa <HAL_RCC_OscConfig+0x20a>
 80015e8:	69eb      	ldr	r3, [r5, #28]
 80015ea:	4313      	orrs	r3, r2
 80015ec:	61eb      	str	r3, [r5, #28]
 80015ee:	69eb      	ldr	r3, [r5, #28]
 80015f0:	4013      	ands	r3, r2
 80015f2:	9303      	str	r3, [sp, #12]
 80015f4:	9b03      	ldr	r3, [sp, #12]
 80015f6:	2301      	movs	r3, #1
 80015f8:	9300      	str	r3, [sp, #0]
 80015fa:	2780      	movs	r7, #128	; 0x80
 80015fc:	4e41      	ldr	r6, [pc, #260]	; (8001704 <HAL_RCC_OscConfig+0x314>)
 80015fe:	007f      	lsls	r7, r7, #1
 8001600:	6833      	ldr	r3, [r6, #0]
 8001602:	423b      	tst	r3, r7
 8001604:	d006      	beq.n	8001614 <HAL_RCC_OscConfig+0x224>
 8001606:	68a3      	ldr	r3, [r4, #8]
 8001608:	2b01      	cmp	r3, #1
 800160a:	d113      	bne.n	8001634 <HAL_RCC_OscConfig+0x244>
 800160c:	6a2a      	ldr	r2, [r5, #32]
 800160e:	4313      	orrs	r3, r2
 8001610:	622b      	str	r3, [r5, #32]
 8001612:	e030      	b.n	8001676 <HAL_RCC_OscConfig+0x286>
 8001614:	6833      	ldr	r3, [r6, #0]
 8001616:	433b      	orrs	r3, r7
 8001618:	6033      	str	r3, [r6, #0]
 800161a:	f7ff fbad 	bl	8000d78 <HAL_GetTick>
 800161e:	9001      	str	r0, [sp, #4]
 8001620:	6833      	ldr	r3, [r6, #0]
 8001622:	423b      	tst	r3, r7
 8001624:	d1ef      	bne.n	8001606 <HAL_RCC_OscConfig+0x216>
 8001626:	f7ff fba7 	bl	8000d78 <HAL_GetTick>
 800162a:	9b01      	ldr	r3, [sp, #4]
 800162c:	1ac0      	subs	r0, r0, r3
 800162e:	2864      	cmp	r0, #100	; 0x64
 8001630:	d9f6      	bls.n	8001620 <HAL_RCC_OscConfig+0x230>
 8001632:	e73f      	b.n	80014b4 <HAL_RCC_OscConfig+0xc4>
 8001634:	2201      	movs	r2, #1
 8001636:	2b00      	cmp	r3, #0
 8001638:	d114      	bne.n	8001664 <HAL_RCC_OscConfig+0x274>
 800163a:	6a2b      	ldr	r3, [r5, #32]
 800163c:	2702      	movs	r7, #2
 800163e:	4393      	bics	r3, r2
 8001640:	622b      	str	r3, [r5, #32]
 8001642:	6a2b      	ldr	r3, [r5, #32]
 8001644:	3203      	adds	r2, #3
 8001646:	4393      	bics	r3, r2
 8001648:	622b      	str	r3, [r5, #32]
 800164a:	f7ff fb95 	bl	8000d78 <HAL_GetTick>
 800164e:	0006      	movs	r6, r0
 8001650:	6a2b      	ldr	r3, [r5, #32]
 8001652:	423b      	tst	r3, r7
 8001654:	d016      	beq.n	8001684 <HAL_RCC_OscConfig+0x294>
 8001656:	f7ff fb8f 	bl	8000d78 <HAL_GetTick>
 800165a:	4b2b      	ldr	r3, [pc, #172]	; (8001708 <HAL_RCC_OscConfig+0x318>)
 800165c:	1b80      	subs	r0, r0, r6
 800165e:	4298      	cmp	r0, r3
 8001660:	d9f6      	bls.n	8001650 <HAL_RCC_OscConfig+0x260>
 8001662:	e727      	b.n	80014b4 <HAL_RCC_OscConfig+0xc4>
 8001664:	2b05      	cmp	r3, #5
 8001666:	d116      	bne.n	8001696 <HAL_RCC_OscConfig+0x2a6>
 8001668:	6a29      	ldr	r1, [r5, #32]
 800166a:	3b01      	subs	r3, #1
 800166c:	430b      	orrs	r3, r1
 800166e:	622b      	str	r3, [r5, #32]
 8001670:	6a2b      	ldr	r3, [r5, #32]
 8001672:	431a      	orrs	r2, r3
 8001674:	622a      	str	r2, [r5, #32]
 8001676:	f7ff fb7f 	bl	8000d78 <HAL_GetTick>
 800167a:	2702      	movs	r7, #2
 800167c:	0006      	movs	r6, r0
 800167e:	6a2b      	ldr	r3, [r5, #32]
 8001680:	423b      	tst	r3, r7
 8001682:	d00f      	beq.n	80016a4 <HAL_RCC_OscConfig+0x2b4>
 8001684:	9b00      	ldr	r3, [sp, #0]
 8001686:	2b01      	cmp	r3, #1
 8001688:	d000      	beq.n	800168c <HAL_RCC_OscConfig+0x29c>
 800168a:	e6c5      	b.n	8001418 <HAL_RCC_OscConfig+0x28>
 800168c:	69eb      	ldr	r3, [r5, #28]
 800168e:	4a1f      	ldr	r2, [pc, #124]	; (800170c <HAL_RCC_OscConfig+0x31c>)
 8001690:	4013      	ands	r3, r2
 8001692:	61eb      	str	r3, [r5, #28]
 8001694:	e6c0      	b.n	8001418 <HAL_RCC_OscConfig+0x28>
 8001696:	6a2b      	ldr	r3, [r5, #32]
 8001698:	4393      	bics	r3, r2
 800169a:	2204      	movs	r2, #4
 800169c:	622b      	str	r3, [r5, #32]
 800169e:	6a2b      	ldr	r3, [r5, #32]
 80016a0:	4393      	bics	r3, r2
 80016a2:	e7b5      	b.n	8001610 <HAL_RCC_OscConfig+0x220>
 80016a4:	f7ff fb68 	bl	8000d78 <HAL_GetTick>
 80016a8:	4b17      	ldr	r3, [pc, #92]	; (8001708 <HAL_RCC_OscConfig+0x318>)
 80016aa:	1b80      	subs	r0, r0, r6
 80016ac:	4298      	cmp	r0, r3
 80016ae:	d9e6      	bls.n	800167e <HAL_RCC_OscConfig+0x28e>
 80016b0:	e700      	b.n	80014b4 <HAL_RCC_OscConfig+0xc4>
 80016b2:	f7ff fb61 	bl	8000d78 <HAL_GetTick>
 80016b6:	1b80      	subs	r0, r0, r6
 80016b8:	2802      	cmp	r0, #2
 80016ba:	d800      	bhi.n	80016be <HAL_RCC_OscConfig+0x2ce>
 80016bc:	e6bf      	b.n	800143e <HAL_RCC_OscConfig+0x4e>
 80016be:	e6f9      	b.n	80014b4 <HAL_RCC_OscConfig+0xc4>
 80016c0:	3205      	adds	r2, #5
 80016c2:	d103      	bne.n	80016cc <HAL_RCC_OscConfig+0x2dc>
 80016c4:	6b6a      	ldr	r2, [r5, #52]	; 0x34
 80016c6:	439a      	bics	r2, r3
 80016c8:	636a      	str	r2, [r5, #52]	; 0x34
 80016ca:	e6bc      	b.n	8001446 <HAL_RCC_OscConfig+0x56>
 80016cc:	6b6a      	ldr	r2, [r5, #52]	; 0x34
 80016ce:	2702      	movs	r7, #2
 80016d0:	4313      	orrs	r3, r2
 80016d2:	2201      	movs	r2, #1
 80016d4:	636b      	str	r3, [r5, #52]	; 0x34
 80016d6:	6b6b      	ldr	r3, [r5, #52]	; 0x34
 80016d8:	4393      	bics	r3, r2
 80016da:	636b      	str	r3, [r5, #52]	; 0x34
 80016dc:	f7ff fb4c 	bl	8000d78 <HAL_GetTick>
 80016e0:	0006      	movs	r6, r0
 80016e2:	6b6b      	ldr	r3, [r5, #52]	; 0x34
 80016e4:	423b      	tst	r3, r7
 80016e6:	d100      	bne.n	80016ea <HAL_RCC_OscConfig+0x2fa>
 80016e8:	e6b4      	b.n	8001454 <HAL_RCC_OscConfig+0x64>
 80016ea:	f7ff fb45 	bl	8000d78 <HAL_GetTick>
 80016ee:	1b80      	subs	r0, r0, r6
 80016f0:	2802      	cmp	r0, #2
 80016f2:	d9f6      	bls.n	80016e2 <HAL_RCC_OscConfig+0x2f2>
 80016f4:	e6de      	b.n	80014b4 <HAL_RCC_OscConfig+0xc4>
 80016f6:	46c0      	nop			; (mov r8, r8)
 80016f8:	40021000 	.word	0x40021000
 80016fc:	fffeffff 	.word	0xfffeffff
 8001700:	fffbffff 	.word	0xfffbffff
 8001704:	40007000 	.word	0x40007000
 8001708:	00001388 	.word	0x00001388
 800170c:	efffffff 	.word	0xefffffff
 8001710:	200c      	movs	r0, #12
 8001712:	4a34      	ldr	r2, [pc, #208]	; (80017e4 <HAL_RCC_OscConfig+0x3f4>)
 8001714:	6851      	ldr	r1, [r2, #4]
 8001716:	0015      	movs	r5, r2
 8001718:	4001      	ands	r1, r0
 800171a:	2908      	cmp	r1, #8
 800171c:	d047      	beq.n	80017ae <HAL_RCC_OscConfig+0x3be>
 800171e:	4a32      	ldr	r2, [pc, #200]	; (80017e8 <HAL_RCC_OscConfig+0x3f8>)
 8001720:	2b02      	cmp	r3, #2
 8001722:	d132      	bne.n	800178a <HAL_RCC_OscConfig+0x39a>
 8001724:	682b      	ldr	r3, [r5, #0]
 8001726:	2780      	movs	r7, #128	; 0x80
 8001728:	4013      	ands	r3, r2
 800172a:	602b      	str	r3, [r5, #0]
 800172c:	f7ff fb24 	bl	8000d78 <HAL_GetTick>
 8001730:	0006      	movs	r6, r0
 8001732:	04bf      	lsls	r7, r7, #18
 8001734:	682b      	ldr	r3, [r5, #0]
 8001736:	423b      	tst	r3, r7
 8001738:	d121      	bne.n	800177e <HAL_RCC_OscConfig+0x38e>
 800173a:	220f      	movs	r2, #15
 800173c:	6aeb      	ldr	r3, [r5, #44]	; 0x2c
 800173e:	2680      	movs	r6, #128	; 0x80
 8001740:	4393      	bics	r3, r2
 8001742:	6ae2      	ldr	r2, [r4, #44]	; 0x2c
 8001744:	04b6      	lsls	r6, r6, #18
 8001746:	4313      	orrs	r3, r2
 8001748:	62eb      	str	r3, [r5, #44]	; 0x2c
 800174a:	6a61      	ldr	r1, [r4, #36]	; 0x24
 800174c:	6aa3      	ldr	r3, [r4, #40]	; 0x28
 800174e:	686a      	ldr	r2, [r5, #4]
 8001750:	430b      	orrs	r3, r1
 8001752:	4926      	ldr	r1, [pc, #152]	; (80017ec <HAL_RCC_OscConfig+0x3fc>)
 8001754:	400a      	ands	r2, r1
 8001756:	4313      	orrs	r3, r2
 8001758:	606b      	str	r3, [r5, #4]
 800175a:	2380      	movs	r3, #128	; 0x80
 800175c:	682a      	ldr	r2, [r5, #0]
 800175e:	045b      	lsls	r3, r3, #17
 8001760:	4313      	orrs	r3, r2
 8001762:	602b      	str	r3, [r5, #0]
 8001764:	f7ff fb08 	bl	8000d78 <HAL_GetTick>
 8001768:	0004      	movs	r4, r0
 800176a:	682b      	ldr	r3, [r5, #0]
 800176c:	4233      	tst	r3, r6
 800176e:	d000      	beq.n	8001772 <HAL_RCC_OscConfig+0x382>
 8001770:	e674      	b.n	800145c <HAL_RCC_OscConfig+0x6c>
 8001772:	f7ff fb01 	bl	8000d78 <HAL_GetTick>
 8001776:	1b00      	subs	r0, r0, r4
 8001778:	2802      	cmp	r0, #2
 800177a:	d9f6      	bls.n	800176a <HAL_RCC_OscConfig+0x37a>
 800177c:	e69a      	b.n	80014b4 <HAL_RCC_OscConfig+0xc4>
 800177e:	f7ff fafb 	bl	8000d78 <HAL_GetTick>
 8001782:	1b80      	subs	r0, r0, r6
 8001784:	2802      	cmp	r0, #2
 8001786:	d9d5      	bls.n	8001734 <HAL_RCC_OscConfig+0x344>
 8001788:	e694      	b.n	80014b4 <HAL_RCC_OscConfig+0xc4>
 800178a:	682b      	ldr	r3, [r5, #0]
 800178c:	2680      	movs	r6, #128	; 0x80
 800178e:	4013      	ands	r3, r2
 8001790:	602b      	str	r3, [r5, #0]
 8001792:	f7ff faf1 	bl	8000d78 <HAL_GetTick>
 8001796:	0004      	movs	r4, r0
 8001798:	04b6      	lsls	r6, r6, #18
 800179a:	682b      	ldr	r3, [r5, #0]
 800179c:	4233      	tst	r3, r6
 800179e:	d100      	bne.n	80017a2 <HAL_RCC_OscConfig+0x3b2>
 80017a0:	e65c      	b.n	800145c <HAL_RCC_OscConfig+0x6c>
 80017a2:	f7ff fae9 	bl	8000d78 <HAL_GetTick>
 80017a6:	1b00      	subs	r0, r0, r4
 80017a8:	2802      	cmp	r0, #2
 80017aa:	d9f6      	bls.n	800179a <HAL_RCC_OscConfig+0x3aa>
 80017ac:	e682      	b.n	80014b4 <HAL_RCC_OscConfig+0xc4>
 80017ae:	0018      	movs	r0, r3
 80017b0:	2b01      	cmp	r3, #1
 80017b2:	d100      	bne.n	80017b6 <HAL_RCC_OscConfig+0x3c6>
 80017b4:	e67f      	b.n	80014b6 <HAL_RCC_OscConfig+0xc6>
 80017b6:	2180      	movs	r1, #128	; 0x80
 80017b8:	6853      	ldr	r3, [r2, #4]
 80017ba:	6a60      	ldr	r0, [r4, #36]	; 0x24
 80017bc:	0249      	lsls	r1, r1, #9
 80017be:	6ad2      	ldr	r2, [r2, #44]	; 0x2c
 80017c0:	4019      	ands	r1, r3
 80017c2:	4281      	cmp	r1, r0
 80017c4:	d000      	beq.n	80017c8 <HAL_RCC_OscConfig+0x3d8>
 80017c6:	e65e      	b.n	8001486 <HAL_RCC_OscConfig+0x96>
 80017c8:	210f      	movs	r1, #15
 80017ca:	400a      	ands	r2, r1
 80017cc:	6ae1      	ldr	r1, [r4, #44]	; 0x2c
 80017ce:	428a      	cmp	r2, r1
 80017d0:	d000      	beq.n	80017d4 <HAL_RCC_OscConfig+0x3e4>
 80017d2:	e658      	b.n	8001486 <HAL_RCC_OscConfig+0x96>
 80017d4:	22f0      	movs	r2, #240	; 0xf0
 80017d6:	0392      	lsls	r2, r2, #14
 80017d8:	4013      	ands	r3, r2
 80017da:	6aa2      	ldr	r2, [r4, #40]	; 0x28
 80017dc:	4293      	cmp	r3, r2
 80017de:	d100      	bne.n	80017e2 <HAL_RCC_OscConfig+0x3f2>
 80017e0:	e63c      	b.n	800145c <HAL_RCC_OscConfig+0x6c>
 80017e2:	e650      	b.n	8001486 <HAL_RCC_OscConfig+0x96>
 80017e4:	40021000 	.word	0x40021000
 80017e8:	feffffff 	.word	0xfeffffff
 80017ec:	ffc2ffff 	.word	0xffc2ffff

080017f0 <HAL_RCC_GetSysClockFreq>:
 80017f0:	b570      	push	{r4, r5, r6, lr}
 80017f2:	b088      	sub	sp, #32
 80017f4:	2210      	movs	r2, #16
 80017f6:	4912      	ldr	r1, [pc, #72]	; (8001840 <HAL_RCC_GetSysClockFreq+0x50>)
 80017f8:	4668      	mov	r0, sp
 80017fa:	ad04      	add	r5, sp, #16
 80017fc:	f000 fdc6 	bl	800238c <memcpy>
 8001800:	2210      	movs	r2, #16
 8001802:	0028      	movs	r0, r5
 8001804:	490f      	ldr	r1, [pc, #60]	; (8001844 <HAL_RCC_GetSysClockFreq+0x54>)
 8001806:	f000 fdc1 	bl	800238c <memcpy>
 800180a:	220c      	movs	r2, #12
 800180c:	4e0e      	ldr	r6, [pc, #56]	; (8001848 <HAL_RCC_GetSysClockFreq+0x58>)
 800180e:	6873      	ldr	r3, [r6, #4]
 8001810:	401a      	ands	r2, r3
 8001812:	2a08      	cmp	r2, #8
 8001814:	d111      	bne.n	800183a <HAL_RCC_GetSysClockFreq+0x4a>
 8001816:	200f      	movs	r0, #15
 8001818:	466a      	mov	r2, sp
 800181a:	0c99      	lsrs	r1, r3, #18
 800181c:	4001      	ands	r1, r0
 800181e:	5c54      	ldrb	r4, [r2, r1]
 8001820:	6af2      	ldr	r2, [r6, #44]	; 0x2c
 8001822:	4002      	ands	r2, r0
 8001824:	5ca9      	ldrb	r1, [r5, r2]
 8001826:	03db      	lsls	r3, r3, #15
 8001828:	d505      	bpl.n	8001836 <HAL_RCC_GetSysClockFreq+0x46>
 800182a:	4808      	ldr	r0, [pc, #32]	; (800184c <HAL_RCC_GetSysClockFreq+0x5c>)
 800182c:	f7fe fc76 	bl	800011c <__udivsi3>
 8001830:	4360      	muls	r0, r4
 8001832:	b008      	add	sp, #32
 8001834:	bd70      	pop	{r4, r5, r6, pc}
 8001836:	4806      	ldr	r0, [pc, #24]	; (8001850 <HAL_RCC_GetSysClockFreq+0x60>)
 8001838:	e7fa      	b.n	8001830 <HAL_RCC_GetSysClockFreq+0x40>
 800183a:	4804      	ldr	r0, [pc, #16]	; (800184c <HAL_RCC_GetSysClockFreq+0x5c>)
 800183c:	e7f9      	b.n	8001832 <HAL_RCC_GetSysClockFreq+0x42>
 800183e:	46c0      	nop			; (mov r8, r8)
 8001840:	080023e3 	.word	0x080023e3
 8001844:	080023f4 	.word	0x080023f4
 8001848:	40021000 	.word	0x40021000
 800184c:	007a1200 	.word	0x007a1200
 8001850:	003d0900 	.word	0x003d0900

08001854 <HAL_RCC_ClockConfig>:
 8001854:	b5f7      	push	{r0, r1, r2, r4, r5, r6, r7, lr}
 8001856:	0005      	movs	r5, r0
 8001858:	000e      	movs	r6, r1
 800185a:	2800      	cmp	r0, #0
 800185c:	d101      	bne.n	8001862 <HAL_RCC_ClockConfig+0xe>
 800185e:	2001      	movs	r0, #1
 8001860:	bdfe      	pop	{r1, r2, r3, r4, r5, r6, r7, pc}
 8001862:	2201      	movs	r2, #1
 8001864:	4c37      	ldr	r4, [pc, #220]	; (8001944 <HAL_RCC_ClockConfig+0xf0>)
 8001866:	6823      	ldr	r3, [r4, #0]
 8001868:	4013      	ands	r3, r2
 800186a:	428b      	cmp	r3, r1
 800186c:	d31c      	bcc.n	80018a8 <HAL_RCC_ClockConfig+0x54>
 800186e:	6829      	ldr	r1, [r5, #0]
 8001870:	078b      	lsls	r3, r1, #30
 8001872:	d422      	bmi.n	80018ba <HAL_RCC_ClockConfig+0x66>
 8001874:	07cb      	lsls	r3, r1, #31
 8001876:	d42f      	bmi.n	80018d8 <HAL_RCC_ClockConfig+0x84>
 8001878:	2301      	movs	r3, #1
 800187a:	6822      	ldr	r2, [r4, #0]
 800187c:	401a      	ands	r2, r3
 800187e:	42b2      	cmp	r2, r6
 8001880:	d851      	bhi.n	8001926 <HAL_RCC_ClockConfig+0xd2>
 8001882:	682b      	ldr	r3, [r5, #0]
 8001884:	4c30      	ldr	r4, [pc, #192]	; (8001948 <HAL_RCC_ClockConfig+0xf4>)
 8001886:	075b      	lsls	r3, r3, #29
 8001888:	d454      	bmi.n	8001934 <HAL_RCC_ClockConfig+0xe0>
 800188a:	f7ff ffb1 	bl	80017f0 <HAL_RCC_GetSysClockFreq>
 800188e:	6863      	ldr	r3, [r4, #4]
 8001890:	4a2e      	ldr	r2, [pc, #184]	; (800194c <HAL_RCC_ClockConfig+0xf8>)
 8001892:	061b      	lsls	r3, r3, #24
 8001894:	0f1b      	lsrs	r3, r3, #28
 8001896:	5cd3      	ldrb	r3, [r2, r3]
 8001898:	40d8      	lsrs	r0, r3
 800189a:	4b2d      	ldr	r3, [pc, #180]	; (8001950 <HAL_RCC_ClockConfig+0xfc>)
 800189c:	6018      	str	r0, [r3, #0]
 800189e:	2000      	movs	r0, #0
 80018a0:	f7ff fa2a 	bl	8000cf8 <HAL_InitTick>
 80018a4:	2000      	movs	r0, #0
 80018a6:	e7db      	b.n	8001860 <HAL_RCC_ClockConfig+0xc>
 80018a8:	6823      	ldr	r3, [r4, #0]
 80018aa:	4393      	bics	r3, r2
 80018ac:	430b      	orrs	r3, r1
 80018ae:	6023      	str	r3, [r4, #0]
 80018b0:	6823      	ldr	r3, [r4, #0]
 80018b2:	4013      	ands	r3, r2
 80018b4:	428b      	cmp	r3, r1
 80018b6:	d1d2      	bne.n	800185e <HAL_RCC_ClockConfig+0xa>
 80018b8:	e7d9      	b.n	800186e <HAL_RCC_ClockConfig+0x1a>
 80018ba:	4a23      	ldr	r2, [pc, #140]	; (8001948 <HAL_RCC_ClockConfig+0xf4>)
 80018bc:	074b      	lsls	r3, r1, #29
 80018be:	d504      	bpl.n	80018ca <HAL_RCC_ClockConfig+0x76>
 80018c0:	23e0      	movs	r3, #224	; 0xe0
 80018c2:	6850      	ldr	r0, [r2, #4]
 80018c4:	00db      	lsls	r3, r3, #3
 80018c6:	4303      	orrs	r3, r0
 80018c8:	6053      	str	r3, [r2, #4]
 80018ca:	20f0      	movs	r0, #240	; 0xf0
 80018cc:	6853      	ldr	r3, [r2, #4]
 80018ce:	4383      	bics	r3, r0
 80018d0:	68a8      	ldr	r0, [r5, #8]
 80018d2:	4303      	orrs	r3, r0
 80018d4:	6053      	str	r3, [r2, #4]
 80018d6:	e7cd      	b.n	8001874 <HAL_RCC_ClockConfig+0x20>
 80018d8:	4f1b      	ldr	r7, [pc, #108]	; (8001948 <HAL_RCC_ClockConfig+0xf4>)
 80018da:	686a      	ldr	r2, [r5, #4]
 80018dc:	683b      	ldr	r3, [r7, #0]
 80018de:	2a01      	cmp	r2, #1
 80018e0:	d119      	bne.n	8001916 <HAL_RCC_ClockConfig+0xc2>
 80018e2:	039b      	lsls	r3, r3, #14
 80018e4:	d5bb      	bpl.n	800185e <HAL_RCC_ClockConfig+0xa>
 80018e6:	2103      	movs	r1, #3
 80018e8:	687b      	ldr	r3, [r7, #4]
 80018ea:	438b      	bics	r3, r1
 80018ec:	4313      	orrs	r3, r2
 80018ee:	607b      	str	r3, [r7, #4]
 80018f0:	f7ff fa42 	bl	8000d78 <HAL_GetTick>
 80018f4:	9001      	str	r0, [sp, #4]
 80018f6:	230c      	movs	r3, #12
 80018f8:	687a      	ldr	r2, [r7, #4]
 80018fa:	401a      	ands	r2, r3
 80018fc:	686b      	ldr	r3, [r5, #4]
 80018fe:	009b      	lsls	r3, r3, #2
 8001900:	429a      	cmp	r2, r3
 8001902:	d0b9      	beq.n	8001878 <HAL_RCC_ClockConfig+0x24>
 8001904:	f7ff fa38 	bl	8000d78 <HAL_GetTick>
 8001908:	9b01      	ldr	r3, [sp, #4]
 800190a:	1ac0      	subs	r0, r0, r3
 800190c:	4b11      	ldr	r3, [pc, #68]	; (8001954 <HAL_RCC_ClockConfig+0x100>)
 800190e:	4298      	cmp	r0, r3
 8001910:	d9f1      	bls.n	80018f6 <HAL_RCC_ClockConfig+0xa2>
 8001912:	2003      	movs	r0, #3
 8001914:	e7a4      	b.n	8001860 <HAL_RCC_ClockConfig+0xc>
 8001916:	2a02      	cmp	r2, #2
 8001918:	d102      	bne.n	8001920 <HAL_RCC_ClockConfig+0xcc>
 800191a:	019b      	lsls	r3, r3, #6
 800191c:	d4e3      	bmi.n	80018e6 <HAL_RCC_ClockConfig+0x92>
 800191e:	e79e      	b.n	800185e <HAL_RCC_ClockConfig+0xa>
 8001920:	079b      	lsls	r3, r3, #30
 8001922:	d4e0      	bmi.n	80018e6 <HAL_RCC_ClockConfig+0x92>
 8001924:	e79b      	b.n	800185e <HAL_RCC_ClockConfig+0xa>
 8001926:	6822      	ldr	r2, [r4, #0]
 8001928:	439a      	bics	r2, r3
 800192a:	6022      	str	r2, [r4, #0]
 800192c:	6822      	ldr	r2, [r4, #0]
 800192e:	421a      	tst	r2, r3
 8001930:	d0a7      	beq.n	8001882 <HAL_RCC_ClockConfig+0x2e>
 8001932:	e794      	b.n	800185e <HAL_RCC_ClockConfig+0xa>
 8001934:	6863      	ldr	r3, [r4, #4]
 8001936:	4a08      	ldr	r2, [pc, #32]	; (8001958 <HAL_RCC_ClockConfig+0x104>)
 8001938:	4013      	ands	r3, r2
 800193a:	68ea      	ldr	r2, [r5, #12]
 800193c:	4313      	orrs	r3, r2
 800193e:	6063      	str	r3, [r4, #4]
 8001940:	e7a3      	b.n	800188a <HAL_RCC_ClockConfig+0x36>
 8001942:	46c0      	nop			; (mov r8, r8)
 8001944:	40022000 	.word	0x40022000
 8001948:	40021000 	.word	0x40021000
 800194c:	080023d3 	.word	0x080023d3
 8001950:	20000000 	.word	0x20000000
 8001954:	00001388 	.word	0x00001388
 8001958:	fffff8ff 	.word	0xfffff8ff

0800195c <HAL_RCCEx_PeriphCLKConfig>:
 800195c:	b5f0      	push	{r4, r5, r6, r7, lr}
 800195e:	6803      	ldr	r3, [r0, #0]
 8001960:	0005      	movs	r5, r0
 8001962:	b085      	sub	sp, #20
 8001964:	03db      	lsls	r3, r3, #15
 8001966:	d52a      	bpl.n	80019be <HAL_RCCEx_PeriphCLKConfig+0x62>
 8001968:	2280      	movs	r2, #128	; 0x80
 800196a:	2100      	movs	r1, #0
 800196c:	4c38      	ldr	r4, [pc, #224]	; (8001a50 <HAL_RCCEx_PeriphCLKConfig+0xf4>)
 800196e:	0552      	lsls	r2, r2, #21
 8001970:	69e3      	ldr	r3, [r4, #28]
 8001972:	9100      	str	r1, [sp, #0]
 8001974:	4213      	tst	r3, r2
 8001976:	d108      	bne.n	800198a <HAL_RCCEx_PeriphCLKConfig+0x2e>
 8001978:	69e3      	ldr	r3, [r4, #28]
 800197a:	4313      	orrs	r3, r2
 800197c:	61e3      	str	r3, [r4, #28]
 800197e:	69e3      	ldr	r3, [r4, #28]
 8001980:	4013      	ands	r3, r2
 8001982:	9303      	str	r3, [sp, #12]
 8001984:	9b03      	ldr	r3, [sp, #12]
 8001986:	2301      	movs	r3, #1
 8001988:	9300      	str	r3, [sp, #0]
 800198a:	2780      	movs	r7, #128	; 0x80
 800198c:	4e31      	ldr	r6, [pc, #196]	; (8001a54 <HAL_RCCEx_PeriphCLKConfig+0xf8>)
 800198e:	007f      	lsls	r7, r7, #1
 8001990:	6833      	ldr	r3, [r6, #0]
 8001992:	423b      	tst	r3, r7
 8001994:	d028      	beq.n	80019e8 <HAL_RCCEx_PeriphCLKConfig+0x8c>
 8001996:	6a22      	ldr	r2, [r4, #32]
 8001998:	23c0      	movs	r3, #192	; 0xc0
 800199a:	0011      	movs	r1, r2
 800199c:	009b      	lsls	r3, r3, #2
 800199e:	4e2e      	ldr	r6, [pc, #184]	; (8001a58 <HAL_RCCEx_PeriphCLKConfig+0xfc>)
 80019a0:	4019      	ands	r1, r3
 80019a2:	421a      	tst	r2, r3
 80019a4:	d132      	bne.n	8001a0c <HAL_RCCEx_PeriphCLKConfig+0xb0>
 80019a6:	6a23      	ldr	r3, [r4, #32]
 80019a8:	401e      	ands	r6, r3
 80019aa:	686b      	ldr	r3, [r5, #4]
 80019ac:	431e      	orrs	r6, r3
 80019ae:	9b00      	ldr	r3, [sp, #0]
 80019b0:	6226      	str	r6, [r4, #32]
 80019b2:	2b01      	cmp	r3, #1
 80019b4:	d103      	bne.n	80019be <HAL_RCCEx_PeriphCLKConfig+0x62>
 80019b6:	69e3      	ldr	r3, [r4, #28]
 80019b8:	4a28      	ldr	r2, [pc, #160]	; (8001a5c <HAL_RCCEx_PeriphCLKConfig+0x100>)
 80019ba:	4013      	ands	r3, r2
 80019bc:	61e3      	str	r3, [r4, #28]
 80019be:	682a      	ldr	r2, [r5, #0]
 80019c0:	07d3      	lsls	r3, r2, #31
 80019c2:	d506      	bpl.n	80019d2 <HAL_RCCEx_PeriphCLKConfig+0x76>
 80019c4:	2003      	movs	r0, #3
 80019c6:	4922      	ldr	r1, [pc, #136]	; (8001a50 <HAL_RCCEx_PeriphCLKConfig+0xf4>)
 80019c8:	6b0b      	ldr	r3, [r1, #48]	; 0x30
 80019ca:	4383      	bics	r3, r0
 80019cc:	68a8      	ldr	r0, [r5, #8]
 80019ce:	4303      	orrs	r3, r0
 80019d0:	630b      	str	r3, [r1, #48]	; 0x30
 80019d2:	2000      	movs	r0, #0
 80019d4:	0693      	lsls	r3, r2, #26
 80019d6:	d517      	bpl.n	8001a08 <HAL_RCCEx_PeriphCLKConfig+0xac>
 80019d8:	2110      	movs	r1, #16
 80019da:	4a1d      	ldr	r2, [pc, #116]	; (8001a50 <HAL_RCCEx_PeriphCLKConfig+0xf4>)
 80019dc:	6b13      	ldr	r3, [r2, #48]	; 0x30
 80019de:	438b      	bics	r3, r1
 80019e0:	68e9      	ldr	r1, [r5, #12]
 80019e2:	430b      	orrs	r3, r1
 80019e4:	6313      	str	r3, [r2, #48]	; 0x30
 80019e6:	e00f      	b.n	8001a08 <HAL_RCCEx_PeriphCLKConfig+0xac>
 80019e8:	6833      	ldr	r3, [r6, #0]
 80019ea:	433b      	orrs	r3, r7
 80019ec:	6033      	str	r3, [r6, #0]
 80019ee:	f7ff f9c3 	bl	8000d78 <HAL_GetTick>
 80019f2:	9001      	str	r0, [sp, #4]
 80019f4:	6833      	ldr	r3, [r6, #0]
 80019f6:	423b      	tst	r3, r7
 80019f8:	d1cd      	bne.n	8001996 <HAL_RCCEx_PeriphCLKConfig+0x3a>
 80019fa:	f7ff f9bd 	bl	8000d78 <HAL_GetTick>
 80019fe:	9b01      	ldr	r3, [sp, #4]
 8001a00:	1ac0      	subs	r0, r0, r3
 8001a02:	2864      	cmp	r0, #100	; 0x64
 8001a04:	d9f6      	bls.n	80019f4 <HAL_RCCEx_PeriphCLKConfig+0x98>
 8001a06:	2003      	movs	r0, #3
 8001a08:	b005      	add	sp, #20
 8001a0a:	bdf0      	pop	{r4, r5, r6, r7, pc}
 8001a0c:	686a      	ldr	r2, [r5, #4]
 8001a0e:	4013      	ands	r3, r2
 8001a10:	428b      	cmp	r3, r1
 8001a12:	d0c8      	beq.n	80019a6 <HAL_RCCEx_PeriphCLKConfig+0x4a>
 8001a14:	2380      	movs	r3, #128	; 0x80
 8001a16:	6a22      	ldr	r2, [r4, #32]
 8001a18:	6a20      	ldr	r0, [r4, #32]
 8001a1a:	0011      	movs	r1, r2
 8001a1c:	025b      	lsls	r3, r3, #9
 8001a1e:	4303      	orrs	r3, r0
 8001a20:	6223      	str	r3, [r4, #32]
 8001a22:	6a23      	ldr	r3, [r4, #32]
 8001a24:	480e      	ldr	r0, [pc, #56]	; (8001a60 <HAL_RCCEx_PeriphCLKConfig+0x104>)
 8001a26:	4031      	ands	r1, r6
 8001a28:	4003      	ands	r3, r0
 8001a2a:	6223      	str	r3, [r4, #32]
 8001a2c:	6221      	str	r1, [r4, #32]
 8001a2e:	07d3      	lsls	r3, r2, #31
 8001a30:	d5b9      	bpl.n	80019a6 <HAL_RCCEx_PeriphCLKConfig+0x4a>
 8001a32:	f7ff f9a1 	bl	8000d78 <HAL_GetTick>
 8001a36:	0007      	movs	r7, r0
 8001a38:	2202      	movs	r2, #2
 8001a3a:	6a23      	ldr	r3, [r4, #32]
 8001a3c:	4213      	tst	r3, r2
 8001a3e:	d1b2      	bne.n	80019a6 <HAL_RCCEx_PeriphCLKConfig+0x4a>
 8001a40:	f7ff f99a 	bl	8000d78 <HAL_GetTick>
 8001a44:	4b07      	ldr	r3, [pc, #28]	; (8001a64 <HAL_RCCEx_PeriphCLKConfig+0x108>)
 8001a46:	1bc0      	subs	r0, r0, r7
 8001a48:	4298      	cmp	r0, r3
 8001a4a:	d9f5      	bls.n	8001a38 <HAL_RCCEx_PeriphCLKConfig+0xdc>
 8001a4c:	e7db      	b.n	8001a06 <HAL_RCCEx_PeriphCLKConfig+0xaa>
 8001a4e:	46c0      	nop			; (mov r8, r8)
 8001a50:	40021000 	.word	0x40021000
 8001a54:	40007000 	.word	0x40007000
 8001a58:	fffffcff 	.word	0xfffffcff
 8001a5c:	efffffff 	.word	0xefffffff
 8001a60:	fffeffff 	.word	0xfffeffff
 8001a64:	00001388 	.word	0x00001388

08001a68 <TIM_OC1_SetConfig>:
 8001a68:	2201      	movs	r2, #1
 8001a6a:	6a03      	ldr	r3, [r0, #32]
 8001a6c:	b570      	push	{r4, r5, r6, lr}
 8001a6e:	4393      	bics	r3, r2
 8001a70:	6203      	str	r3, [r0, #32]
 8001a72:	6a03      	ldr	r3, [r0, #32]
 8001a74:	6844      	ldr	r4, [r0, #4]
 8001a76:	6985      	ldr	r5, [r0, #24]
 8001a78:	3272      	adds	r2, #114	; 0x72
 8001a7a:	4395      	bics	r5, r2
 8001a7c:	680a      	ldr	r2, [r1, #0]
 8001a7e:	4315      	orrs	r5, r2
 8001a80:	2202      	movs	r2, #2
 8001a82:	4393      	bics	r3, r2
 8001a84:	688a      	ldr	r2, [r1, #8]
 8001a86:	4313      	orrs	r3, r2
 8001a88:	4a11      	ldr	r2, [pc, #68]	; (8001ad0 <TIM_OC1_SetConfig+0x68>)
 8001a8a:	4290      	cmp	r0, r2
 8001a8c:	d005      	beq.n	8001a9a <TIM_OC1_SetConfig+0x32>
 8001a8e:	4e11      	ldr	r6, [pc, #68]	; (8001ad4 <TIM_OC1_SetConfig+0x6c>)
 8001a90:	42b0      	cmp	r0, r6
 8001a92:	d002      	beq.n	8001a9a <TIM_OC1_SetConfig+0x32>
 8001a94:	4e10      	ldr	r6, [pc, #64]	; (8001ad8 <TIM_OC1_SetConfig+0x70>)
 8001a96:	42b0      	cmp	r0, r6
 8001a98:	d113      	bne.n	8001ac2 <TIM_OC1_SetConfig+0x5a>
 8001a9a:	2608      	movs	r6, #8
 8001a9c:	43b3      	bics	r3, r6
 8001a9e:	68ce      	ldr	r6, [r1, #12]
 8001aa0:	4333      	orrs	r3, r6
 8001aa2:	2604      	movs	r6, #4
 8001aa4:	43b3      	bics	r3, r6
 8001aa6:	4290      	cmp	r0, r2
 8001aa8:	d005      	beq.n	8001ab6 <TIM_OC1_SetConfig+0x4e>
 8001aaa:	4a0a      	ldr	r2, [pc, #40]	; (8001ad4 <TIM_OC1_SetConfig+0x6c>)
 8001aac:	4290      	cmp	r0, r2
 8001aae:	d002      	beq.n	8001ab6 <TIM_OC1_SetConfig+0x4e>
 8001ab0:	4a09      	ldr	r2, [pc, #36]	; (8001ad8 <TIM_OC1_SetConfig+0x70>)
 8001ab2:	4290      	cmp	r0, r2
 8001ab4:	d105      	bne.n	8001ac2 <TIM_OC1_SetConfig+0x5a>
 8001ab6:	4a09      	ldr	r2, [pc, #36]	; (8001adc <TIM_OC1_SetConfig+0x74>)
 8001ab8:	698e      	ldr	r6, [r1, #24]
 8001aba:	4022      	ands	r2, r4
 8001abc:	694c      	ldr	r4, [r1, #20]
 8001abe:	4334      	orrs	r4, r6
 8001ac0:	4314      	orrs	r4, r2
 8001ac2:	684a      	ldr	r2, [r1, #4]
 8001ac4:	6044      	str	r4, [r0, #4]
 8001ac6:	6185      	str	r5, [r0, #24]
 8001ac8:	6342      	str	r2, [r0, #52]	; 0x34
 8001aca:	6203      	str	r3, [r0, #32]
 8001acc:	bd70      	pop	{r4, r5, r6, pc}
 8001ace:	46c0      	nop			; (mov r8, r8)
 8001ad0:	40012c00 	.word	0x40012c00
 8001ad4:	40014400 	.word	0x40014400
 8001ad8:	40014800 	.word	0x40014800
 8001adc:	fffffcff 	.word	0xfffffcff

08001ae0 <TIM_OC3_SetConfig>:
 8001ae0:	b570      	push	{r4, r5, r6, lr}
 8001ae2:	2573      	movs	r5, #115	; 0x73
 8001ae4:	6a03      	ldr	r3, [r0, #32]
 8001ae6:	4a16      	ldr	r2, [pc, #88]	; (8001b40 <TIM_OC3_SetConfig+0x60>)
 8001ae8:	4013      	ands	r3, r2
 8001aea:	6203      	str	r3, [r0, #32]
 8001aec:	6a03      	ldr	r3, [r0, #32]
 8001aee:	6842      	ldr	r2, [r0, #4]
 8001af0:	69c4      	ldr	r4, [r0, #28]
 8001af2:	43ac      	bics	r4, r5
 8001af4:	680d      	ldr	r5, [r1, #0]
 8001af6:	432c      	orrs	r4, r5
 8001af8:	4d12      	ldr	r5, [pc, #72]	; (8001b44 <TIM_OC3_SetConfig+0x64>)
 8001afa:	402b      	ands	r3, r5
 8001afc:	688d      	ldr	r5, [r1, #8]
 8001afe:	022d      	lsls	r5, r5, #8
 8001b00:	432b      	orrs	r3, r5
 8001b02:	4d11      	ldr	r5, [pc, #68]	; (8001b48 <TIM_OC3_SetConfig+0x68>)
 8001b04:	42a8      	cmp	r0, r5
 8001b06:	d10e      	bne.n	8001b26 <TIM_OC3_SetConfig+0x46>
 8001b08:	4d10      	ldr	r5, [pc, #64]	; (8001b4c <TIM_OC3_SetConfig+0x6c>)
 8001b0a:	401d      	ands	r5, r3
 8001b0c:	68cb      	ldr	r3, [r1, #12]
 8001b0e:	021b      	lsls	r3, r3, #8
 8001b10:	432b      	orrs	r3, r5
 8001b12:	4d0f      	ldr	r5, [pc, #60]	; (8001b50 <TIM_OC3_SetConfig+0x70>)
 8001b14:	402b      	ands	r3, r5
 8001b16:	4d0f      	ldr	r5, [pc, #60]	; (8001b54 <TIM_OC3_SetConfig+0x74>)
 8001b18:	694e      	ldr	r6, [r1, #20]
 8001b1a:	4015      	ands	r5, r2
 8001b1c:	698a      	ldr	r2, [r1, #24]
 8001b1e:	4332      	orrs	r2, r6
 8001b20:	0112      	lsls	r2, r2, #4
 8001b22:	432a      	orrs	r2, r5
 8001b24:	e005      	b.n	8001b32 <TIM_OC3_SetConfig+0x52>
 8001b26:	4d0c      	ldr	r5, [pc, #48]	; (8001b58 <TIM_OC3_SetConfig+0x78>)
 8001b28:	42a8      	cmp	r0, r5
 8001b2a:	d0f4      	beq.n	8001b16 <TIM_OC3_SetConfig+0x36>
 8001b2c:	4d0b      	ldr	r5, [pc, #44]	; (8001b5c <TIM_OC3_SetConfig+0x7c>)
 8001b2e:	42a8      	cmp	r0, r5
 8001b30:	d0f1      	beq.n	8001b16 <TIM_OC3_SetConfig+0x36>
 8001b32:	6042      	str	r2, [r0, #4]
 8001b34:	684a      	ldr	r2, [r1, #4]
 8001b36:	61c4      	str	r4, [r0, #28]
 8001b38:	63c2      	str	r2, [r0, #60]	; 0x3c
 8001b3a:	6203      	str	r3, [r0, #32]
 8001b3c:	bd70      	pop	{r4, r5, r6, pc}
 8001b3e:	46c0      	nop			; (mov r8, r8)
 8001b40:	fffffeff 	.word	0xfffffeff
 8001b44:	fffffdff 	.word	0xfffffdff
 8001b48:	40012c00 	.word	0x40012c00
 8001b4c:	fffff7ff 	.word	0xfffff7ff
 8001b50:	fffffbff 	.word	0xfffffbff
 8001b54:	ffffcfff 	.word	0xffffcfff
 8001b58:	40014400 	.word	0x40014400
 8001b5c:	40014800 	.word	0x40014800

08001b60 <TIM_OC4_SetConfig>:
 8001b60:	6a03      	ldr	r3, [r0, #32]
 8001b62:	4a12      	ldr	r2, [pc, #72]	; (8001bac <TIM_OC4_SetConfig+0x4c>)
 8001b64:	b530      	push	{r4, r5, lr}
 8001b66:	4013      	ands	r3, r2
 8001b68:	6203      	str	r3, [r0, #32]
 8001b6a:	6a02      	ldr	r2, [r0, #32]
 8001b6c:	4c10      	ldr	r4, [pc, #64]	; (8001bb0 <TIM_OC4_SetConfig+0x50>)
 8001b6e:	6843      	ldr	r3, [r0, #4]
 8001b70:	69c5      	ldr	r5, [r0, #28]
 8001b72:	4025      	ands	r5, r4
 8001b74:	680c      	ldr	r4, [r1, #0]
 8001b76:	0224      	lsls	r4, r4, #8
 8001b78:	4325      	orrs	r5, r4
 8001b7a:	4c0e      	ldr	r4, [pc, #56]	; (8001bb4 <TIM_OC4_SetConfig+0x54>)
 8001b7c:	4022      	ands	r2, r4
 8001b7e:	688c      	ldr	r4, [r1, #8]
 8001b80:	0324      	lsls	r4, r4, #12
 8001b82:	4322      	orrs	r2, r4
 8001b84:	4c0c      	ldr	r4, [pc, #48]	; (8001bb8 <TIM_OC4_SetConfig+0x58>)
 8001b86:	42a0      	cmp	r0, r4
 8001b88:	d005      	beq.n	8001b96 <TIM_OC4_SetConfig+0x36>
 8001b8a:	4c0c      	ldr	r4, [pc, #48]	; (8001bbc <TIM_OC4_SetConfig+0x5c>)
 8001b8c:	42a0      	cmp	r0, r4
 8001b8e:	d002      	beq.n	8001b96 <TIM_OC4_SetConfig+0x36>
 8001b90:	4c0b      	ldr	r4, [pc, #44]	; (8001bc0 <TIM_OC4_SetConfig+0x60>)
 8001b92:	42a0      	cmp	r0, r4
 8001b94:	d104      	bne.n	8001ba0 <TIM_OC4_SetConfig+0x40>
 8001b96:	4c0b      	ldr	r4, [pc, #44]	; (8001bc4 <TIM_OC4_SetConfig+0x64>)
 8001b98:	4023      	ands	r3, r4
 8001b9a:	694c      	ldr	r4, [r1, #20]
 8001b9c:	01a4      	lsls	r4, r4, #6
 8001b9e:	4323      	orrs	r3, r4
 8001ba0:	6043      	str	r3, [r0, #4]
 8001ba2:	684b      	ldr	r3, [r1, #4]
 8001ba4:	61c5      	str	r5, [r0, #28]
 8001ba6:	6403      	str	r3, [r0, #64]	; 0x40
 8001ba8:	6202      	str	r2, [r0, #32]
 8001baa:	bd30      	pop	{r4, r5, pc}
 8001bac:	ffffefff 	.word	0xffffefff
 8001bb0:	ffff8cff 	.word	0xffff8cff
 8001bb4:	ffffdfff 	.word	0xffffdfff
 8001bb8:	40012c00 	.word	0x40012c00
 8001bbc:	40014400 	.word	0x40014400
 8001bc0:	40014800 	.word	0x40014800
 8001bc4:	ffffbfff 	.word	0xffffbfff

08001bc8 <HAL_TIM_Base_Start_IT>:
 8001bc8:	0002      	movs	r2, r0
 8001bca:	0003      	movs	r3, r0
 8001bcc:	2001      	movs	r0, #1
 8001bce:	323d      	adds	r2, #61	; 0x3d
 8001bd0:	7811      	ldrb	r1, [r2, #0]
 8001bd2:	4281      	cmp	r1, r0
 8001bd4:	d115      	bne.n	8001c02 <HAL_TIM_Base_Start_IT+0x3a>
 8001bd6:	2102      	movs	r1, #2
 8001bd8:	7011      	strb	r1, [r2, #0]
 8001bda:	681b      	ldr	r3, [r3, #0]
 8001bdc:	68da      	ldr	r2, [r3, #12]
 8001bde:	4302      	orrs	r2, r0
 8001be0:	60da      	str	r2, [r3, #12]
 8001be2:	4a0b      	ldr	r2, [pc, #44]	; (8001c10 <HAL_TIM_Base_Start_IT+0x48>)
 8001be4:	4293      	cmp	r3, r2
 8001be6:	d002      	beq.n	8001bee <HAL_TIM_Base_Start_IT+0x26>
 8001be8:	4a0a      	ldr	r2, [pc, #40]	; (8001c14 <HAL_TIM_Base_Start_IT+0x4c>)
 8001bea:	4293      	cmp	r3, r2
 8001bec:	d10a      	bne.n	8001c04 <HAL_TIM_Base_Start_IT+0x3c>
 8001bee:	2107      	movs	r1, #7
 8001bf0:	689a      	ldr	r2, [r3, #8]
 8001bf2:	2000      	movs	r0, #0
 8001bf4:	400a      	ands	r2, r1
 8001bf6:	2a06      	cmp	r2, #6
 8001bf8:	d003      	beq.n	8001c02 <HAL_TIM_Base_Start_IT+0x3a>
 8001bfa:	2201      	movs	r2, #1
 8001bfc:	6819      	ldr	r1, [r3, #0]
 8001bfe:	430a      	orrs	r2, r1
 8001c00:	601a      	str	r2, [r3, #0]
 8001c02:	4770      	bx	lr
 8001c04:	681a      	ldr	r2, [r3, #0]
 8001c06:	4310      	orrs	r0, r2
 8001c08:	6018      	str	r0, [r3, #0]
 8001c0a:	2000      	movs	r0, #0
 8001c0c:	e7f9      	b.n	8001c02 <HAL_TIM_Base_Start_IT+0x3a>
 8001c0e:	46c0      	nop			; (mov r8, r8)
 8001c10:	40012c00 	.word	0x40012c00
 8001c14:	40000400 	.word	0x40000400

08001c18 <HAL_TIM_Base_Stop_IT>:
 8001c18:	2101      	movs	r1, #1
 8001c1a:	6803      	ldr	r3, [r0, #0]
 8001c1c:	b510      	push	{r4, lr}
 8001c1e:	68da      	ldr	r2, [r3, #12]
 8001c20:	438a      	bics	r2, r1
 8001c22:	60da      	str	r2, [r3, #12]
 8001c24:	6a1c      	ldr	r4, [r3, #32]
 8001c26:	4a07      	ldr	r2, [pc, #28]	; (8001c44 <HAL_TIM_Base_Stop_IT+0x2c>)
 8001c28:	4214      	tst	r4, r2
 8001c2a:	d106      	bne.n	8001c3a <HAL_TIM_Base_Stop_IT+0x22>
 8001c2c:	6a1c      	ldr	r4, [r3, #32]
 8001c2e:	4a06      	ldr	r2, [pc, #24]	; (8001c48 <HAL_TIM_Base_Stop_IT+0x30>)
 8001c30:	4214      	tst	r4, r2
 8001c32:	d102      	bne.n	8001c3a <HAL_TIM_Base_Stop_IT+0x22>
 8001c34:	681a      	ldr	r2, [r3, #0]
 8001c36:	438a      	bics	r2, r1
 8001c38:	601a      	str	r2, [r3, #0]
 8001c3a:	2301      	movs	r3, #1
 8001c3c:	303d      	adds	r0, #61	; 0x3d
 8001c3e:	7003      	strb	r3, [r0, #0]
 8001c40:	2000      	movs	r0, #0
 8001c42:	bd10      	pop	{r4, pc}
 8001c44:	00001111 	.word	0x00001111
 8001c48:	00000444 	.word	0x00000444

08001c4c <HAL_TIM_OC_MspInit>:
 8001c4c:	4770      	bx	lr

08001c4e <HAL_TIM_PWM_MspInit>:
 8001c4e:	4770      	bx	lr

08001c50 <HAL_TIM_OC_DelayElapsedCallback>:
 8001c50:	4770      	bx	lr

08001c52 <HAL_TIM_IC_CaptureCallback>:
 8001c52:	4770      	bx	lr

08001c54 <HAL_TIM_PWM_PulseFinishedCallback>:
 8001c54:	4770      	bx	lr

08001c56 <HAL_TIM_TriggerCallback>:
 8001c56:	4770      	bx	lr

08001c58 <HAL_TIM_IRQHandler>:
 8001c58:	2202      	movs	r2, #2
 8001c5a:	6803      	ldr	r3, [r0, #0]
 8001c5c:	b510      	push	{r4, lr}
 8001c5e:	6919      	ldr	r1, [r3, #16]
 8001c60:	0004      	movs	r4, r0
 8001c62:	4211      	tst	r1, r2
 8001c64:	d00e      	beq.n	8001c84 <HAL_TIM_IRQHandler+0x2c>
 8001c66:	68d9      	ldr	r1, [r3, #12]
 8001c68:	4211      	tst	r1, r2
 8001c6a:	d00b      	beq.n	8001c84 <HAL_TIM_IRQHandler+0x2c>
 8001c6c:	3a05      	subs	r2, #5
 8001c6e:	611a      	str	r2, [r3, #16]
 8001c70:	3204      	adds	r2, #4
 8001c72:	7702      	strb	r2, [r0, #28]
 8001c74:	699b      	ldr	r3, [r3, #24]
 8001c76:	079b      	lsls	r3, r3, #30
 8001c78:	d100      	bne.n	8001c7c <HAL_TIM_IRQHandler+0x24>
 8001c7a:	e079      	b.n	8001d70 <HAL_TIM_IRQHandler+0x118>
 8001c7c:	f7ff ffe9 	bl	8001c52 <HAL_TIM_IC_CaptureCallback>
 8001c80:	2300      	movs	r3, #0
 8001c82:	7723      	strb	r3, [r4, #28]
 8001c84:	2204      	movs	r2, #4
 8001c86:	6823      	ldr	r3, [r4, #0]
 8001c88:	6919      	ldr	r1, [r3, #16]
 8001c8a:	4211      	tst	r1, r2
 8001c8c:	d010      	beq.n	8001cb0 <HAL_TIM_IRQHandler+0x58>
 8001c8e:	68d9      	ldr	r1, [r3, #12]
 8001c90:	4211      	tst	r1, r2
 8001c92:	d00d      	beq.n	8001cb0 <HAL_TIM_IRQHandler+0x58>
 8001c94:	3a09      	subs	r2, #9
 8001c96:	611a      	str	r2, [r3, #16]
 8001c98:	3207      	adds	r2, #7
 8001c9a:	7722      	strb	r2, [r4, #28]
 8001c9c:	699a      	ldr	r2, [r3, #24]
 8001c9e:	23c0      	movs	r3, #192	; 0xc0
 8001ca0:	009b      	lsls	r3, r3, #2
 8001ca2:	0020      	movs	r0, r4
 8001ca4:	421a      	tst	r2, r3
 8001ca6:	d069      	beq.n	8001d7c <HAL_TIM_IRQHandler+0x124>
 8001ca8:	f7ff ffd3 	bl	8001c52 <HAL_TIM_IC_CaptureCallback>
 8001cac:	2300      	movs	r3, #0
 8001cae:	7723      	strb	r3, [r4, #28]
 8001cb0:	2208      	movs	r2, #8
 8001cb2:	6823      	ldr	r3, [r4, #0]
 8001cb4:	6919      	ldr	r1, [r3, #16]
 8001cb6:	4211      	tst	r1, r2
 8001cb8:	d00e      	beq.n	8001cd8 <HAL_TIM_IRQHandler+0x80>
 8001cba:	68d9      	ldr	r1, [r3, #12]
 8001cbc:	4211      	tst	r1, r2
 8001cbe:	d00b      	beq.n	8001cd8 <HAL_TIM_IRQHandler+0x80>
 8001cc0:	3a11      	subs	r2, #17
 8001cc2:	611a      	str	r2, [r3, #16]
 8001cc4:	320d      	adds	r2, #13
 8001cc6:	7722      	strb	r2, [r4, #28]
 8001cc8:	69db      	ldr	r3, [r3, #28]
 8001cca:	0020      	movs	r0, r4
 8001ccc:	079b      	lsls	r3, r3, #30
 8001cce:	d05b      	beq.n	8001d88 <HAL_TIM_IRQHandler+0x130>
 8001cd0:	f7ff ffbf 	bl	8001c52 <HAL_TIM_IC_CaptureCallback>
 8001cd4:	2300      	movs	r3, #0
 8001cd6:	7723      	strb	r3, [r4, #28]
 8001cd8:	2210      	movs	r2, #16
 8001cda:	6823      	ldr	r3, [r4, #0]
 8001cdc:	6919      	ldr	r1, [r3, #16]
 8001cde:	4211      	tst	r1, r2
 8001ce0:	d010      	beq.n	8001d04 <HAL_TIM_IRQHandler+0xac>
 8001ce2:	68d9      	ldr	r1, [r3, #12]
 8001ce4:	4211      	tst	r1, r2
 8001ce6:	d00d      	beq.n	8001d04 <HAL_TIM_IRQHandler+0xac>
 8001ce8:	3a21      	subs	r2, #33	; 0x21
 8001cea:	611a      	str	r2, [r3, #16]
 8001cec:	3219      	adds	r2, #25
 8001cee:	7722      	strb	r2, [r4, #28]
 8001cf0:	69da      	ldr	r2, [r3, #28]
 8001cf2:	23c0      	movs	r3, #192	; 0xc0
 8001cf4:	009b      	lsls	r3, r3, #2
 8001cf6:	0020      	movs	r0, r4
 8001cf8:	421a      	tst	r2, r3
 8001cfa:	d04b      	beq.n	8001d94 <HAL_TIM_IRQHandler+0x13c>
 8001cfc:	f7ff ffa9 	bl	8001c52 <HAL_TIM_IC_CaptureCallback>
 8001d00:	2300      	movs	r3, #0
 8001d02:	7723      	strb	r3, [r4, #28]
 8001d04:	2201      	movs	r2, #1
 8001d06:	6823      	ldr	r3, [r4, #0]
 8001d08:	6919      	ldr	r1, [r3, #16]
 8001d0a:	4211      	tst	r1, r2
 8001d0c:	d007      	beq.n	8001d1e <HAL_TIM_IRQHandler+0xc6>
 8001d0e:	68d9      	ldr	r1, [r3, #12]
 8001d10:	4211      	tst	r1, r2
 8001d12:	d004      	beq.n	8001d1e <HAL_TIM_IRQHandler+0xc6>
 8001d14:	3a03      	subs	r2, #3
 8001d16:	0020      	movs	r0, r4
 8001d18:	611a      	str	r2, [r3, #16]
 8001d1a:	f7fe fba9 	bl	8000470 <HAL_TIM_PeriodElapsedCallback>
 8001d1e:	2280      	movs	r2, #128	; 0x80
 8001d20:	6823      	ldr	r3, [r4, #0]
 8001d22:	6919      	ldr	r1, [r3, #16]
 8001d24:	4211      	tst	r1, r2
 8001d26:	d008      	beq.n	8001d3a <HAL_TIM_IRQHandler+0xe2>
 8001d28:	68d9      	ldr	r1, [r3, #12]
 8001d2a:	4211      	tst	r1, r2
 8001d2c:	d005      	beq.n	8001d3a <HAL_TIM_IRQHandler+0xe2>
 8001d2e:	3a02      	subs	r2, #2
 8001d30:	3aff      	subs	r2, #255	; 0xff
 8001d32:	0020      	movs	r0, r4
 8001d34:	611a      	str	r2, [r3, #16]
 8001d36:	f000 fb04 	bl	8002342 <HAL_TIMEx_BreakCallback>
 8001d3a:	2240      	movs	r2, #64	; 0x40
 8001d3c:	6823      	ldr	r3, [r4, #0]
 8001d3e:	6919      	ldr	r1, [r3, #16]
 8001d40:	4211      	tst	r1, r2
 8001d42:	d007      	beq.n	8001d54 <HAL_TIM_IRQHandler+0xfc>
 8001d44:	68d9      	ldr	r1, [r3, #12]
 8001d46:	4211      	tst	r1, r2
 8001d48:	d004      	beq.n	8001d54 <HAL_TIM_IRQHandler+0xfc>
 8001d4a:	3a81      	subs	r2, #129	; 0x81
 8001d4c:	0020      	movs	r0, r4
 8001d4e:	611a      	str	r2, [r3, #16]
 8001d50:	f7ff ff81 	bl	8001c56 <HAL_TIM_TriggerCallback>
 8001d54:	2220      	movs	r2, #32
 8001d56:	6823      	ldr	r3, [r4, #0]
 8001d58:	6919      	ldr	r1, [r3, #16]
 8001d5a:	4211      	tst	r1, r2
 8001d5c:	d007      	beq.n	8001d6e <HAL_TIM_IRQHandler+0x116>
 8001d5e:	68d9      	ldr	r1, [r3, #12]
 8001d60:	4211      	tst	r1, r2
 8001d62:	d004      	beq.n	8001d6e <HAL_TIM_IRQHandler+0x116>
 8001d64:	3a41      	subs	r2, #65	; 0x41
 8001d66:	0020      	movs	r0, r4
 8001d68:	611a      	str	r2, [r3, #16]
 8001d6a:	f000 fae9 	bl	8002340 <HAL_TIMEx_CommutCallback>
 8001d6e:	bd10      	pop	{r4, pc}
 8001d70:	f7ff ff6e 	bl	8001c50 <HAL_TIM_OC_DelayElapsedCallback>
 8001d74:	0020      	movs	r0, r4
 8001d76:	f7ff ff6d 	bl	8001c54 <HAL_TIM_PWM_PulseFinishedCallback>
 8001d7a:	e781      	b.n	8001c80 <HAL_TIM_IRQHandler+0x28>
 8001d7c:	f7ff ff68 	bl	8001c50 <HAL_TIM_OC_DelayElapsedCallback>
 8001d80:	0020      	movs	r0, r4
 8001d82:	f7ff ff67 	bl	8001c54 <HAL_TIM_PWM_PulseFinishedCallback>
 8001d86:	e791      	b.n	8001cac <HAL_TIM_IRQHandler+0x54>
 8001d88:	f7ff ff62 	bl	8001c50 <HAL_TIM_OC_DelayElapsedCallback>
 8001d8c:	0020      	movs	r0, r4
 8001d8e:	f7ff ff61 	bl	8001c54 <HAL_TIM_PWM_PulseFinishedCallback>
 8001d92:	e79f      	b.n	8001cd4 <HAL_TIM_IRQHandler+0x7c>
 8001d94:	f7ff ff5c 	bl	8001c50 <HAL_TIM_OC_DelayElapsedCallback>
 8001d98:	0020      	movs	r0, r4
 8001d9a:	f7ff ff5b 	bl	8001c54 <HAL_TIM_PWM_PulseFinishedCallback>
 8001d9e:	e7af      	b.n	8001d00 <HAL_TIM_IRQHandler+0xa8>

08001da0 <TIM_Base_SetConfig>:
 8001da0:	4a19      	ldr	r2, [pc, #100]	; (8001e08 <TIM_Base_SetConfig+0x68>)
 8001da2:	b510      	push	{r4, lr}
 8001da4:	6803      	ldr	r3, [r0, #0]
 8001da6:	4290      	cmp	r0, r2
 8001da8:	d002      	beq.n	8001db0 <TIM_Base_SetConfig+0x10>
 8001daa:	4c18      	ldr	r4, [pc, #96]	; (8001e0c <TIM_Base_SetConfig+0x6c>)
 8001dac:	42a0      	cmp	r0, r4
 8001dae:	d108      	bne.n	8001dc2 <TIM_Base_SetConfig+0x22>
 8001db0:	2470      	movs	r4, #112	; 0x70
 8001db2:	43a3      	bics	r3, r4
 8001db4:	684c      	ldr	r4, [r1, #4]
 8001db6:	4323      	orrs	r3, r4
 8001db8:	4290      	cmp	r0, r2
 8001dba:	d00b      	beq.n	8001dd4 <TIM_Base_SetConfig+0x34>
 8001dbc:	4c13      	ldr	r4, [pc, #76]	; (8001e0c <TIM_Base_SetConfig+0x6c>)
 8001dbe:	42a0      	cmp	r0, r4
 8001dc0:	d008      	beq.n	8001dd4 <TIM_Base_SetConfig+0x34>
 8001dc2:	4c13      	ldr	r4, [pc, #76]	; (8001e10 <TIM_Base_SetConfig+0x70>)
 8001dc4:	42a0      	cmp	r0, r4
 8001dc6:	d005      	beq.n	8001dd4 <TIM_Base_SetConfig+0x34>
 8001dc8:	4c12      	ldr	r4, [pc, #72]	; (8001e14 <TIM_Base_SetConfig+0x74>)
 8001dca:	42a0      	cmp	r0, r4
 8001dcc:	d002      	beq.n	8001dd4 <TIM_Base_SetConfig+0x34>
 8001dce:	4c12      	ldr	r4, [pc, #72]	; (8001e18 <TIM_Base_SetConfig+0x78>)
 8001dd0:	42a0      	cmp	r0, r4
 8001dd2:	d103      	bne.n	8001ddc <TIM_Base_SetConfig+0x3c>
 8001dd4:	4c11      	ldr	r4, [pc, #68]	; (8001e1c <TIM_Base_SetConfig+0x7c>)
 8001dd6:	4023      	ands	r3, r4
 8001dd8:	68cc      	ldr	r4, [r1, #12]
 8001dda:	4323      	orrs	r3, r4
 8001ddc:	2480      	movs	r4, #128	; 0x80
 8001dde:	43a3      	bics	r3, r4
 8001de0:	694c      	ldr	r4, [r1, #20]
 8001de2:	4323      	orrs	r3, r4
 8001de4:	6003      	str	r3, [r0, #0]
 8001de6:	688b      	ldr	r3, [r1, #8]
 8001de8:	62c3      	str	r3, [r0, #44]	; 0x2c
 8001dea:	680b      	ldr	r3, [r1, #0]
 8001dec:	6283      	str	r3, [r0, #40]	; 0x28
 8001dee:	4290      	cmp	r0, r2
 8001df0:	d005      	beq.n	8001dfe <TIM_Base_SetConfig+0x5e>
 8001df2:	4b08      	ldr	r3, [pc, #32]	; (8001e14 <TIM_Base_SetConfig+0x74>)
 8001df4:	4298      	cmp	r0, r3
 8001df6:	d002      	beq.n	8001dfe <TIM_Base_SetConfig+0x5e>
 8001df8:	4b07      	ldr	r3, [pc, #28]	; (8001e18 <TIM_Base_SetConfig+0x78>)
 8001dfa:	4298      	cmp	r0, r3
 8001dfc:	d101      	bne.n	8001e02 <TIM_Base_SetConfig+0x62>
 8001dfe:	690b      	ldr	r3, [r1, #16]
 8001e00:	6303      	str	r3, [r0, #48]	; 0x30
 8001e02:	2301      	movs	r3, #1
 8001e04:	6143      	str	r3, [r0, #20]
 8001e06:	bd10      	pop	{r4, pc}
 8001e08:	40012c00 	.word	0x40012c00
 8001e0c:	40000400 	.word	0x40000400
 8001e10:	40002000 	.word	0x40002000
 8001e14:	40014400 	.word	0x40014400
 8001e18:	40014800 	.word	0x40014800
 8001e1c:	fffffcff 	.word	0xfffffcff

08001e20 <HAL_TIM_Base_Init>:
 8001e20:	b570      	push	{r4, r5, r6, lr}
 8001e22:	0004      	movs	r4, r0
 8001e24:	2001      	movs	r0, #1
 8001e26:	2c00      	cmp	r4, #0
 8001e28:	d021      	beq.n	8001e6e <HAL_TIM_Base_Init+0x4e>
 8001e2a:	0025      	movs	r5, r4
 8001e2c:	353d      	adds	r5, #61	; 0x3d
 8001e2e:	782b      	ldrb	r3, [r5, #0]
 8001e30:	b2da      	uxtb	r2, r3
 8001e32:	2b00      	cmp	r3, #0
 8001e34:	d105      	bne.n	8001e42 <HAL_TIM_Base_Init+0x22>
 8001e36:	0023      	movs	r3, r4
 8001e38:	333c      	adds	r3, #60	; 0x3c
 8001e3a:	0020      	movs	r0, r4
 8001e3c:	701a      	strb	r2, [r3, #0]
 8001e3e:	f7fe fe8d 	bl	8000b5c <HAL_TIM_Base_MspInit>
 8001e42:	2302      	movs	r3, #2
 8001e44:	702b      	strb	r3, [r5, #0]
 8001e46:	6820      	ldr	r0, [r4, #0]
 8001e48:	1d21      	adds	r1, r4, #4
 8001e4a:	f7ff ffa9 	bl	8001da0 <TIM_Base_SetConfig>
 8001e4e:	0022      	movs	r2, r4
 8001e50:	2301      	movs	r3, #1
 8001e52:	2000      	movs	r0, #0
 8001e54:	3246      	adds	r2, #70	; 0x46
 8001e56:	7013      	strb	r3, [r2, #0]
 8001e58:	3445      	adds	r4, #69	; 0x45
 8001e5a:	3a08      	subs	r2, #8
 8001e5c:	7013      	strb	r3, [r2, #0]
 8001e5e:	7053      	strb	r3, [r2, #1]
 8001e60:	7093      	strb	r3, [r2, #2]
 8001e62:	70d3      	strb	r3, [r2, #3]
 8001e64:	7113      	strb	r3, [r2, #4]
 8001e66:	7153      	strb	r3, [r2, #5]
 8001e68:	7193      	strb	r3, [r2, #6]
 8001e6a:	7023      	strb	r3, [r4, #0]
 8001e6c:	702b      	strb	r3, [r5, #0]
 8001e6e:	bd70      	pop	{r4, r5, r6, pc}

08001e70 <HAL_TIM_OC_Init>:
 8001e70:	b570      	push	{r4, r5, r6, lr}
 8001e72:	0004      	movs	r4, r0
 8001e74:	2001      	movs	r0, #1
 8001e76:	2c00      	cmp	r4, #0
 8001e78:	d021      	beq.n	8001ebe <HAL_TIM_OC_Init+0x4e>
 8001e7a:	0025      	movs	r5, r4
 8001e7c:	353d      	adds	r5, #61	; 0x3d
 8001e7e:	782b      	ldrb	r3, [r5, #0]
 8001e80:	b2da      	uxtb	r2, r3
 8001e82:	2b00      	cmp	r3, #0
 8001e84:	d105      	bne.n	8001e92 <HAL_TIM_OC_Init+0x22>
 8001e86:	0023      	movs	r3, r4
 8001e88:	333c      	adds	r3, #60	; 0x3c
 8001e8a:	0020      	movs	r0, r4
 8001e8c:	701a      	strb	r2, [r3, #0]
 8001e8e:	f7ff fedd 	bl	8001c4c <HAL_TIM_OC_MspInit>
 8001e92:	2302      	movs	r3, #2
 8001e94:	702b      	strb	r3, [r5, #0]
 8001e96:	6820      	ldr	r0, [r4, #0]
 8001e98:	1d21      	adds	r1, r4, #4
 8001e9a:	f7ff ff81 	bl	8001da0 <TIM_Base_SetConfig>
 8001e9e:	0022      	movs	r2, r4
 8001ea0:	2301      	movs	r3, #1
 8001ea2:	2000      	movs	r0, #0
 8001ea4:	3246      	adds	r2, #70	; 0x46
 8001ea6:	7013      	strb	r3, [r2, #0]
 8001ea8:	3445      	adds	r4, #69	; 0x45
 8001eaa:	3a08      	subs	r2, #8
 8001eac:	7013      	strb	r3, [r2, #0]
 8001eae:	7053      	strb	r3, [r2, #1]
 8001eb0:	7093      	strb	r3, [r2, #2]
 8001eb2:	70d3      	strb	r3, [r2, #3]
 8001eb4:	7113      	strb	r3, [r2, #4]
 8001eb6:	7153      	strb	r3, [r2, #5]
 8001eb8:	7193      	strb	r3, [r2, #6]
 8001eba:	7023      	strb	r3, [r4, #0]
 8001ebc:	702b      	strb	r3, [r5, #0]
 8001ebe:	bd70      	pop	{r4, r5, r6, pc}

08001ec0 <HAL_TIM_PWM_Init>:
 8001ec0:	b570      	push	{r4, r5, r6, lr}
 8001ec2:	0004      	movs	r4, r0
 8001ec4:	2001      	movs	r0, #1
 8001ec6:	2c00      	cmp	r4, #0
 8001ec8:	d021      	beq.n	8001f0e <HAL_TIM_PWM_Init+0x4e>
 8001eca:	0025      	movs	r5, r4
 8001ecc:	353d      	adds	r5, #61	; 0x3d
 8001ece:	782b      	ldrb	r3, [r5, #0]
 8001ed0:	b2da      	uxtb	r2, r3
 8001ed2:	2b00      	cmp	r3, #0
 8001ed4:	d105      	bne.n	8001ee2 <HAL_TIM_PWM_Init+0x22>
 8001ed6:	0023      	movs	r3, r4
 8001ed8:	333c      	adds	r3, #60	; 0x3c
 8001eda:	0020      	movs	r0, r4
 8001edc:	701a      	strb	r2, [r3, #0]
 8001ede:	f7ff feb6 	bl	8001c4e <HAL_TIM_PWM_MspInit>
 8001ee2:	2302      	movs	r3, #2
 8001ee4:	702b      	strb	r3, [r5, #0]
 8001ee6:	6820      	ldr	r0, [r4, #0]
 8001ee8:	1d21      	adds	r1, r4, #4
 8001eea:	f7ff ff59 	bl	8001da0 <TIM_Base_SetConfig>
 8001eee:	0022      	movs	r2, r4
 8001ef0:	2301      	movs	r3, #1
 8001ef2:	2000      	movs	r0, #0
 8001ef4:	3246      	adds	r2, #70	; 0x46
 8001ef6:	7013      	strb	r3, [r2, #0]
 8001ef8:	3445      	adds	r4, #69	; 0x45
 8001efa:	3a08      	subs	r2, #8
 8001efc:	7013      	strb	r3, [r2, #0]
 8001efe:	7053      	strb	r3, [r2, #1]
 8001f00:	7093      	strb	r3, [r2, #2]
 8001f02:	70d3      	strb	r3, [r2, #3]
 8001f04:	7113      	strb	r3, [r2, #4]
 8001f06:	7153      	strb	r3, [r2, #5]
 8001f08:	7193      	strb	r3, [r2, #6]
 8001f0a:	7023      	strb	r3, [r4, #0]
 8001f0c:	702b      	strb	r3, [r5, #0]
 8001f0e:	bd70      	pop	{r4, r5, r6, pc}

08001f10 <TIM_OC2_SetConfig>:
 8001f10:	2210      	movs	r2, #16
 8001f12:	6a03      	ldr	r3, [r0, #32]
 8001f14:	b570      	push	{r4, r5, r6, lr}
 8001f16:	4393      	bics	r3, r2
 8001f18:	6203      	str	r3, [r0, #32]
 8001f1a:	6a02      	ldr	r2, [r0, #32]
 8001f1c:	4d15      	ldr	r5, [pc, #84]	; (8001f74 <TIM_OC2_SetConfig+0x64>)
 8001f1e:	6843      	ldr	r3, [r0, #4]
 8001f20:	6984      	ldr	r4, [r0, #24]
 8001f22:	402c      	ands	r4, r5
 8001f24:	680d      	ldr	r5, [r1, #0]
 8001f26:	022d      	lsls	r5, r5, #8
 8001f28:	432c      	orrs	r4, r5
 8001f2a:	2520      	movs	r5, #32
 8001f2c:	43aa      	bics	r2, r5
 8001f2e:	688d      	ldr	r5, [r1, #8]
 8001f30:	012d      	lsls	r5, r5, #4
 8001f32:	432a      	orrs	r2, r5
 8001f34:	4d10      	ldr	r5, [pc, #64]	; (8001f78 <TIM_OC2_SetConfig+0x68>)
 8001f36:	42a8      	cmp	r0, r5
 8001f38:	d10f      	bne.n	8001f5a <TIM_OC2_SetConfig+0x4a>
 8001f3a:	2580      	movs	r5, #128	; 0x80
 8001f3c:	43aa      	bics	r2, r5
 8001f3e:	0015      	movs	r5, r2
 8001f40:	68ca      	ldr	r2, [r1, #12]
 8001f42:	0112      	lsls	r2, r2, #4
 8001f44:	432a      	orrs	r2, r5
 8001f46:	2540      	movs	r5, #64	; 0x40
 8001f48:	43aa      	bics	r2, r5
 8001f4a:	4d0c      	ldr	r5, [pc, #48]	; (8001f7c <TIM_OC2_SetConfig+0x6c>)
 8001f4c:	694e      	ldr	r6, [r1, #20]
 8001f4e:	401d      	ands	r5, r3
 8001f50:	698b      	ldr	r3, [r1, #24]
 8001f52:	4333      	orrs	r3, r6
 8001f54:	009b      	lsls	r3, r3, #2
 8001f56:	432b      	orrs	r3, r5
 8001f58:	e005      	b.n	8001f66 <TIM_OC2_SetConfig+0x56>
 8001f5a:	4d09      	ldr	r5, [pc, #36]	; (8001f80 <TIM_OC2_SetConfig+0x70>)
 8001f5c:	42a8      	cmp	r0, r5
 8001f5e:	d0f4      	beq.n	8001f4a <TIM_OC2_SetConfig+0x3a>
 8001f60:	4d08      	ldr	r5, [pc, #32]	; (8001f84 <TIM_OC2_SetConfig+0x74>)
 8001f62:	42a8      	cmp	r0, r5
 8001f64:	d0f1      	beq.n	8001f4a <TIM_OC2_SetConfig+0x3a>
 8001f66:	6043      	str	r3, [r0, #4]
 8001f68:	684b      	ldr	r3, [r1, #4]
 8001f6a:	6184      	str	r4, [r0, #24]
 8001f6c:	6383      	str	r3, [r0, #56]	; 0x38
 8001f6e:	6202      	str	r2, [r0, #32]
 8001f70:	bd70      	pop	{r4, r5, r6, pc}
 8001f72:	46c0      	nop			; (mov r8, r8)
 8001f74:	ffff8cff 	.word	0xffff8cff
 8001f78:	40012c00 	.word	0x40012c00
 8001f7c:	fffff3ff 	.word	0xfffff3ff
 8001f80:	40014400 	.word	0x40014400
 8001f84:	40014800 	.word	0x40014800

08001f88 <HAL_TIM_OC_ConfigChannel>:
 8001f88:	b570      	push	{r4, r5, r6, lr}
 8001f8a:	0004      	movs	r4, r0
 8001f8c:	343c      	adds	r4, #60	; 0x3c
 8001f8e:	7825      	ldrb	r5, [r4, #0]
 8001f90:	0003      	movs	r3, r0
 8001f92:	2002      	movs	r0, #2
 8001f94:	2d01      	cmp	r5, #1
 8001f96:	d00a      	beq.n	8001fae <HAL_TIM_OC_ConfigChannel+0x26>
 8001f98:	3801      	subs	r0, #1
 8001f9a:	7020      	strb	r0, [r4, #0]
 8001f9c:	2a08      	cmp	r2, #8
 8001f9e:	d015      	beq.n	8001fcc <HAL_TIM_OC_ConfigChannel+0x44>
 8001fa0:	d806      	bhi.n	8001fb0 <HAL_TIM_OC_ConfigChannel+0x28>
 8001fa2:	2a00      	cmp	r2, #0
 8001fa4:	d00a      	beq.n	8001fbc <HAL_TIM_OC_ConfigChannel+0x34>
 8001fa6:	2a04      	cmp	r2, #4
 8001fa8:	d00c      	beq.n	8001fc4 <HAL_TIM_OC_ConfigChannel+0x3c>
 8001faa:	2000      	movs	r0, #0
 8001fac:	7020      	strb	r0, [r4, #0]
 8001fae:	bd70      	pop	{r4, r5, r6, pc}
 8001fb0:	2a0c      	cmp	r2, #12
 8001fb2:	d1fa      	bne.n	8001faa <HAL_TIM_OC_ConfigChannel+0x22>
 8001fb4:	6818      	ldr	r0, [r3, #0]
 8001fb6:	f7ff fdd3 	bl	8001b60 <TIM_OC4_SetConfig>
 8001fba:	e7f6      	b.n	8001faa <HAL_TIM_OC_ConfigChannel+0x22>
 8001fbc:	6818      	ldr	r0, [r3, #0]
 8001fbe:	f7ff fd53 	bl	8001a68 <TIM_OC1_SetConfig>
 8001fc2:	e7f2      	b.n	8001faa <HAL_TIM_OC_ConfigChannel+0x22>
 8001fc4:	6818      	ldr	r0, [r3, #0]
 8001fc6:	f7ff ffa3 	bl	8001f10 <TIM_OC2_SetConfig>
 8001fca:	e7ee      	b.n	8001faa <HAL_TIM_OC_ConfigChannel+0x22>
 8001fcc:	6818      	ldr	r0, [r3, #0]
 8001fce:	f7ff fd87 	bl	8001ae0 <TIM_OC3_SetConfig>
 8001fd2:	e7ea      	b.n	8001faa <HAL_TIM_OC_ConfigChannel+0x22>

08001fd4 <HAL_TIM_PWM_ConfigChannel>:
 8001fd4:	b5f8      	push	{r3, r4, r5, r6, r7, lr}
 8001fd6:	0007      	movs	r7, r0
 8001fd8:	373c      	adds	r7, #60	; 0x3c
 8001fda:	783b      	ldrb	r3, [r7, #0]
 8001fdc:	0004      	movs	r4, r0
 8001fde:	000d      	movs	r5, r1
 8001fe0:	0016      	movs	r6, r2
 8001fe2:	2002      	movs	r0, #2
 8001fe4:	2b01      	cmp	r3, #1
 8001fe6:	d00a      	beq.n	8001ffe <HAL_TIM_PWM_ConfigChannel+0x2a>
 8001fe8:	2301      	movs	r3, #1
 8001fea:	703b      	strb	r3, [r7, #0]
 8001fec:	2a08      	cmp	r2, #8
 8001fee:	d03c      	beq.n	800206a <HAL_TIM_PWM_ConfigChannel+0x96>
 8001ff0:	d806      	bhi.n	8002000 <HAL_TIM_PWM_ConfigChannel+0x2c>
 8001ff2:	2a00      	cmp	r2, #0
 8001ff4:	d017      	beq.n	8002026 <HAL_TIM_PWM_ConfigChannel+0x52>
 8001ff6:	2a04      	cmp	r2, #4
 8001ff8:	d026      	beq.n	8002048 <HAL_TIM_PWM_ConfigChannel+0x74>
 8001ffa:	2000      	movs	r0, #0
 8001ffc:	7038      	strb	r0, [r7, #0]
 8001ffe:	bdf8      	pop	{r3, r4, r5, r6, r7, pc}
 8002000:	2a0c      	cmp	r2, #12
 8002002:	d1fa      	bne.n	8001ffa <HAL_TIM_PWM_ConfigChannel+0x26>
 8002004:	6820      	ldr	r0, [r4, #0]
 8002006:	f7ff fdab 	bl	8001b60 <TIM_OC4_SetConfig>
 800200a:	2280      	movs	r2, #128	; 0x80
 800200c:	6823      	ldr	r3, [r4, #0]
 800200e:	0112      	lsls	r2, r2, #4
 8002010:	69d9      	ldr	r1, [r3, #28]
 8002012:	430a      	orrs	r2, r1
 8002014:	61da      	str	r2, [r3, #28]
 8002016:	69da      	ldr	r2, [r3, #28]
 8002018:	491c      	ldr	r1, [pc, #112]	; (800208c <HAL_TIM_PWM_ConfigChannel+0xb8>)
 800201a:	400a      	ands	r2, r1
 800201c:	61da      	str	r2, [r3, #28]
 800201e:	692a      	ldr	r2, [r5, #16]
 8002020:	69d9      	ldr	r1, [r3, #28]
 8002022:	0212      	lsls	r2, r2, #8
 8002024:	e02e      	b.n	8002084 <HAL_TIM_PWM_ConfigChannel+0xb0>
 8002026:	6820      	ldr	r0, [r4, #0]
 8002028:	f7ff fd1e 	bl	8001a68 <TIM_OC1_SetConfig>
 800202c:	2208      	movs	r2, #8
 800202e:	6823      	ldr	r3, [r4, #0]
 8002030:	6999      	ldr	r1, [r3, #24]
 8002032:	430a      	orrs	r2, r1
 8002034:	2104      	movs	r1, #4
 8002036:	619a      	str	r2, [r3, #24]
 8002038:	699a      	ldr	r2, [r3, #24]
 800203a:	438a      	bics	r2, r1
 800203c:	619a      	str	r2, [r3, #24]
 800203e:	699a      	ldr	r2, [r3, #24]
 8002040:	6929      	ldr	r1, [r5, #16]
 8002042:	430a      	orrs	r2, r1
 8002044:	619a      	str	r2, [r3, #24]
 8002046:	e7d8      	b.n	8001ffa <HAL_TIM_PWM_ConfigChannel+0x26>
 8002048:	6820      	ldr	r0, [r4, #0]
 800204a:	f7ff ff61 	bl	8001f10 <TIM_OC2_SetConfig>
 800204e:	2280      	movs	r2, #128	; 0x80
 8002050:	6823      	ldr	r3, [r4, #0]
 8002052:	0112      	lsls	r2, r2, #4
 8002054:	6999      	ldr	r1, [r3, #24]
 8002056:	430a      	orrs	r2, r1
 8002058:	619a      	str	r2, [r3, #24]
 800205a:	699a      	ldr	r2, [r3, #24]
 800205c:	490b      	ldr	r1, [pc, #44]	; (800208c <HAL_TIM_PWM_ConfigChannel+0xb8>)
 800205e:	400a      	ands	r2, r1
 8002060:	619a      	str	r2, [r3, #24]
 8002062:	692a      	ldr	r2, [r5, #16]
 8002064:	6999      	ldr	r1, [r3, #24]
 8002066:	0212      	lsls	r2, r2, #8
 8002068:	e7eb      	b.n	8002042 <HAL_TIM_PWM_ConfigChannel+0x6e>
 800206a:	6820      	ldr	r0, [r4, #0]
 800206c:	f7ff fd38 	bl	8001ae0 <TIM_OC3_SetConfig>
 8002070:	2104      	movs	r1, #4
 8002072:	6823      	ldr	r3, [r4, #0]
 8002074:	69da      	ldr	r2, [r3, #28]
 8002076:	4316      	orrs	r6, r2
 8002078:	61de      	str	r6, [r3, #28]
 800207a:	69da      	ldr	r2, [r3, #28]
 800207c:	438a      	bics	r2, r1
 800207e:	61da      	str	r2, [r3, #28]
 8002080:	69da      	ldr	r2, [r3, #28]
 8002082:	6929      	ldr	r1, [r5, #16]
 8002084:	430a      	orrs	r2, r1
 8002086:	61da      	str	r2, [r3, #28]
 8002088:	e7b7      	b.n	8001ffa <HAL_TIM_PWM_ConfigChannel+0x26>
 800208a:	46c0      	nop			; (mov r8, r8)
 800208c:	fffffbff 	.word	0xfffffbff

08002090 <TIM_ETR_SetConfig>:
 8002090:	b530      	push	{r4, r5, lr}
 8002092:	6884      	ldr	r4, [r0, #8]
 8002094:	4d03      	ldr	r5, [pc, #12]	; (80020a4 <TIM_ETR_SetConfig+0x14>)
 8002096:	430a      	orrs	r2, r1
 8002098:	021b      	lsls	r3, r3, #8
 800209a:	402c      	ands	r4, r5
 800209c:	4313      	orrs	r3, r2
 800209e:	4323      	orrs	r3, r4
 80020a0:	6083      	str	r3, [r0, #8]
 80020a2:	bd30      	pop	{r4, r5, pc}
 80020a4:	ffff00ff 	.word	0xffff00ff

080020a8 <HAL_TIM_ConfigClockSource>:
 80020a8:	b5f8      	push	{r3, r4, r5, r6, r7, lr}
 80020aa:	0005      	movs	r5, r0
 80020ac:	2302      	movs	r3, #2
 80020ae:	353c      	adds	r5, #60	; 0x3c
 80020b0:	782a      	ldrb	r2, [r5, #0]
 80020b2:	0004      	movs	r4, r0
 80020b4:	0018      	movs	r0, r3
 80020b6:	2a01      	cmp	r2, #1
 80020b8:	d023      	beq.n	8002102 <HAL_TIM_ConfigClockSource+0x5a>
 80020ba:	0026      	movs	r6, r4
 80020bc:	2701      	movs	r7, #1
 80020be:	363d      	adds	r6, #61	; 0x3d
 80020c0:	702f      	strb	r7, [r5, #0]
 80020c2:	7033      	strb	r3, [r6, #0]
 80020c4:	6820      	ldr	r0, [r4, #0]
 80020c6:	4a41      	ldr	r2, [pc, #260]	; (80021cc <HAL_TIM_ConfigClockSource+0x124>)
 80020c8:	6883      	ldr	r3, [r0, #8]
 80020ca:	4013      	ands	r3, r2
 80020cc:	6083      	str	r3, [r0, #8]
 80020ce:	680b      	ldr	r3, [r1, #0]
 80020d0:	2b60      	cmp	r3, #96	; 0x60
 80020d2:	d04c      	beq.n	800216e <HAL_TIM_ConfigClockSource+0xc6>
 80020d4:	d830      	bhi.n	8002138 <HAL_TIM_ConfigClockSource+0x90>
 80020d6:	2b40      	cmp	r3, #64	; 0x40
 80020d8:	d061      	beq.n	800219e <HAL_TIM_ConfigClockSource+0xf6>
 80020da:	d813      	bhi.n	8002104 <HAL_TIM_ConfigClockSource+0x5c>
 80020dc:	2b20      	cmp	r3, #32
 80020de:	d004      	beq.n	80020ea <HAL_TIM_ConfigClockSource+0x42>
 80020e0:	d809      	bhi.n	80020f6 <HAL_TIM_ConfigClockSource+0x4e>
 80020e2:	2210      	movs	r2, #16
 80020e4:	0019      	movs	r1, r3
 80020e6:	4391      	bics	r1, r2
 80020e8:	d107      	bne.n	80020fa <HAL_TIM_ConfigClockSource+0x52>
 80020ea:	2170      	movs	r1, #112	; 0x70
 80020ec:	6882      	ldr	r2, [r0, #8]
 80020ee:	438a      	bics	r2, r1
 80020f0:	4313      	orrs	r3, r2
 80020f2:	2207      	movs	r2, #7
 80020f4:	e01d      	b.n	8002132 <HAL_TIM_ConfigClockSource+0x8a>
 80020f6:	2b30      	cmp	r3, #48	; 0x30
 80020f8:	d0f7      	beq.n	80020ea <HAL_TIM_ConfigClockSource+0x42>
 80020fa:	2301      	movs	r3, #1
 80020fc:	2000      	movs	r0, #0
 80020fe:	7033      	strb	r3, [r6, #0]
 8002100:	7028      	strb	r0, [r5, #0]
 8002102:	bdf8      	pop	{r3, r4, r5, r6, r7, pc}
 8002104:	2b50      	cmp	r3, #80	; 0x50
 8002106:	d1f8      	bne.n	80020fa <HAL_TIM_ConfigClockSource+0x52>
 8002108:	684a      	ldr	r2, [r1, #4]
 800210a:	68cb      	ldr	r3, [r1, #12]
 800210c:	6a01      	ldr	r1, [r0, #32]
 800210e:	6a04      	ldr	r4, [r0, #32]
 8002110:	011b      	lsls	r3, r3, #4
 8002112:	43bc      	bics	r4, r7
 8002114:	27f0      	movs	r7, #240	; 0xf0
 8002116:	6204      	str	r4, [r0, #32]
 8002118:	6984      	ldr	r4, [r0, #24]
 800211a:	43bc      	bics	r4, r7
 800211c:	4323      	orrs	r3, r4
 800211e:	240a      	movs	r4, #10
 8002120:	43a1      	bics	r1, r4
 8002122:	430a      	orrs	r2, r1
 8002124:	6183      	str	r3, [r0, #24]
 8002126:	6202      	str	r2, [r0, #32]
 8002128:	2270      	movs	r2, #112	; 0x70
 800212a:	6883      	ldr	r3, [r0, #8]
 800212c:	4393      	bics	r3, r2
 800212e:	001a      	movs	r2, r3
 8002130:	2357      	movs	r3, #87	; 0x57
 8002132:	4313      	orrs	r3, r2
 8002134:	6083      	str	r3, [r0, #8]
 8002136:	e7e0      	b.n	80020fa <HAL_TIM_ConfigClockSource+0x52>
 8002138:	2b70      	cmp	r3, #112	; 0x70
 800213a:	d00d      	beq.n	8002158 <HAL_TIM_ConfigClockSource+0xb0>
 800213c:	2280      	movs	r2, #128	; 0x80
 800213e:	0192      	lsls	r2, r2, #6
 8002140:	4293      	cmp	r3, r2
 8002142:	d1da      	bne.n	80020fa <HAL_TIM_ConfigClockSource+0x52>
 8002144:	68cb      	ldr	r3, [r1, #12]
 8002146:	684a      	ldr	r2, [r1, #4]
 8002148:	6889      	ldr	r1, [r1, #8]
 800214a:	f7ff ffa1 	bl	8002090 <TIM_ETR_SetConfig>
 800214e:	2380      	movs	r3, #128	; 0x80
 8002150:	6822      	ldr	r2, [r4, #0]
 8002152:	01db      	lsls	r3, r3, #7
 8002154:	6891      	ldr	r1, [r2, #8]
 8002156:	e007      	b.n	8002168 <HAL_TIM_ConfigClockSource+0xc0>
 8002158:	68cb      	ldr	r3, [r1, #12]
 800215a:	684a      	ldr	r2, [r1, #4]
 800215c:	6889      	ldr	r1, [r1, #8]
 800215e:	f7ff ff97 	bl	8002090 <TIM_ETR_SetConfig>
 8002162:	2377      	movs	r3, #119	; 0x77
 8002164:	6822      	ldr	r2, [r4, #0]
 8002166:	6891      	ldr	r1, [r2, #8]
 8002168:	430b      	orrs	r3, r1
 800216a:	6093      	str	r3, [r2, #8]
 800216c:	e7c5      	b.n	80020fa <HAL_TIM_ConfigClockSource+0x52>
 800216e:	2410      	movs	r4, #16
 8002170:	684b      	ldr	r3, [r1, #4]
 8002172:	68ca      	ldr	r2, [r1, #12]
 8002174:	6a01      	ldr	r1, [r0, #32]
 8002176:	4f16      	ldr	r7, [pc, #88]	; (80021d0 <HAL_TIM_ConfigClockSource+0x128>)
 8002178:	43a1      	bics	r1, r4
 800217a:	6201      	str	r1, [r0, #32]
 800217c:	6984      	ldr	r4, [r0, #24]
 800217e:	0312      	lsls	r2, r2, #12
 8002180:	403c      	ands	r4, r7
 8002182:	4322      	orrs	r2, r4
 8002184:	24a0      	movs	r4, #160	; 0xa0
 8002186:	6a01      	ldr	r1, [r0, #32]
 8002188:	6182      	str	r2, [r0, #24]
 800218a:	2270      	movs	r2, #112	; 0x70
 800218c:	43a1      	bics	r1, r4
 800218e:	011b      	lsls	r3, r3, #4
 8002190:	430b      	orrs	r3, r1
 8002192:	6203      	str	r3, [r0, #32]
 8002194:	6883      	ldr	r3, [r0, #8]
 8002196:	4393      	bics	r3, r2
 8002198:	001a      	movs	r2, r3
 800219a:	2367      	movs	r3, #103	; 0x67
 800219c:	e7c9      	b.n	8002132 <HAL_TIM_ConfigClockSource+0x8a>
 800219e:	684a      	ldr	r2, [r1, #4]
 80021a0:	68cb      	ldr	r3, [r1, #12]
 80021a2:	6a01      	ldr	r1, [r0, #32]
 80021a4:	6a04      	ldr	r4, [r0, #32]
 80021a6:	011b      	lsls	r3, r3, #4
 80021a8:	43bc      	bics	r4, r7
 80021aa:	27f0      	movs	r7, #240	; 0xf0
 80021ac:	6204      	str	r4, [r0, #32]
 80021ae:	6984      	ldr	r4, [r0, #24]
 80021b0:	43bc      	bics	r4, r7
 80021b2:	4323      	orrs	r3, r4
 80021b4:	240a      	movs	r4, #10
 80021b6:	43a1      	bics	r1, r4
 80021b8:	430a      	orrs	r2, r1
 80021ba:	6183      	str	r3, [r0, #24]
 80021bc:	6202      	str	r2, [r0, #32]
 80021be:	2270      	movs	r2, #112	; 0x70
 80021c0:	6883      	ldr	r3, [r0, #8]
 80021c2:	4393      	bics	r3, r2
 80021c4:	001a      	movs	r2, r3
 80021c6:	2347      	movs	r3, #71	; 0x47
 80021c8:	e7b3      	b.n	8002132 <HAL_TIM_ConfigClockSource+0x8a>
 80021ca:	46c0      	nop			; (mov r8, r8)
 80021cc:	ffff0088 	.word	0xffff0088
 80021d0:	ffff0fff 	.word	0xffff0fff

080021d4 <TIM_CCxChannelCmd>:
 80021d4:	231f      	movs	r3, #31
 80021d6:	b510      	push	{r4, lr}
 80021d8:	2401      	movs	r4, #1
 80021da:	4019      	ands	r1, r3
 80021dc:	408c      	lsls	r4, r1
 80021de:	408a      	lsls	r2, r1
 80021e0:	6a03      	ldr	r3, [r0, #32]
 80021e2:	43a3      	bics	r3, r4
 80021e4:	6203      	str	r3, [r0, #32]
 80021e6:	6a03      	ldr	r3, [r0, #32]
 80021e8:	431a      	orrs	r2, r3
 80021ea:	6202      	str	r2, [r0, #32]
 80021ec:	bd10      	pop	{r4, pc}
	...

080021f0 <HAL_TIM_OC_Start>:
 80021f0:	b510      	push	{r4, lr}
 80021f2:	0003      	movs	r3, r0
 80021f4:	0004      	movs	r4, r0
 80021f6:	2900      	cmp	r1, #0
 80021f8:	d105      	bne.n	8002206 <HAL_TIM_OC_Start+0x16>
 80021fa:	333e      	adds	r3, #62	; 0x3e
 80021fc:	2001      	movs	r0, #1
 80021fe:	781a      	ldrb	r2, [r3, #0]
 8002200:	4282      	cmp	r2, r0
 8002202:	d00a      	beq.n	800221a <HAL_TIM_OC_Start+0x2a>
 8002204:	bd10      	pop	{r4, pc}
 8002206:	2904      	cmp	r1, #4
 8002208:	d101      	bne.n	800220e <HAL_TIM_OC_Start+0x1e>
 800220a:	333f      	adds	r3, #63	; 0x3f
 800220c:	e7f6      	b.n	80021fc <HAL_TIM_OC_Start+0xc>
 800220e:	2908      	cmp	r1, #8
 8002210:	d101      	bne.n	8002216 <HAL_TIM_OC_Start+0x26>
 8002212:	3340      	adds	r3, #64	; 0x40
 8002214:	e7f2      	b.n	80021fc <HAL_TIM_OC_Start+0xc>
 8002216:	3341      	adds	r3, #65	; 0x41
 8002218:	e7f0      	b.n	80021fc <HAL_TIM_OC_Start+0xc>
 800221a:	2202      	movs	r2, #2
 800221c:	701a      	strb	r2, [r3, #0]
 800221e:	6820      	ldr	r0, [r4, #0]
 8002220:	2201      	movs	r2, #1
 8002222:	f7ff ffd7 	bl	80021d4 <TIM_CCxChannelCmd>
 8002226:	6823      	ldr	r3, [r4, #0]
 8002228:	4912      	ldr	r1, [pc, #72]	; (8002274 <HAL_TIM_OC_Start+0x84>)
 800222a:	428b      	cmp	r3, r1
 800222c:	d013      	beq.n	8002256 <HAL_TIM_OC_Start+0x66>
 800222e:	4a12      	ldr	r2, [pc, #72]	; (8002278 <HAL_TIM_OC_Start+0x88>)
 8002230:	4293      	cmp	r3, r2
 8002232:	d010      	beq.n	8002256 <HAL_TIM_OC_Start+0x66>
 8002234:	4a11      	ldr	r2, [pc, #68]	; (800227c <HAL_TIM_OC_Start+0x8c>)
 8002236:	4293      	cmp	r3, r2
 8002238:	d00d      	beq.n	8002256 <HAL_TIM_OC_Start+0x66>
 800223a:	4a11      	ldr	r2, [pc, #68]	; (8002280 <HAL_TIM_OC_Start+0x90>)
 800223c:	4293      	cmp	r3, r2
 800223e:	d112      	bne.n	8002266 <HAL_TIM_OC_Start+0x76>
 8002240:	2107      	movs	r1, #7
 8002242:	689a      	ldr	r2, [r3, #8]
 8002244:	2000      	movs	r0, #0
 8002246:	400a      	ands	r2, r1
 8002248:	2a06      	cmp	r2, #6
 800224a:	d0db      	beq.n	8002204 <HAL_TIM_OC_Start+0x14>
 800224c:	2201      	movs	r2, #1
 800224e:	6819      	ldr	r1, [r3, #0]
 8002250:	430a      	orrs	r2, r1
 8002252:	601a      	str	r2, [r3, #0]
 8002254:	e7d6      	b.n	8002204 <HAL_TIM_OC_Start+0x14>
 8002256:	2280      	movs	r2, #128	; 0x80
 8002258:	6c58      	ldr	r0, [r3, #68]	; 0x44
 800225a:	0212      	lsls	r2, r2, #8
 800225c:	4302      	orrs	r2, r0
 800225e:	645a      	str	r2, [r3, #68]	; 0x44
 8002260:	428b      	cmp	r3, r1
 8002262:	d1ea      	bne.n	800223a <HAL_TIM_OC_Start+0x4a>
 8002264:	e7ec      	b.n	8002240 <HAL_TIM_OC_Start+0x50>
 8002266:	2201      	movs	r2, #1
 8002268:	6819      	ldr	r1, [r3, #0]
 800226a:	2000      	movs	r0, #0
 800226c:	430a      	orrs	r2, r1
 800226e:	601a      	str	r2, [r3, #0]
 8002270:	e7c8      	b.n	8002204 <HAL_TIM_OC_Start+0x14>
 8002272:	46c0      	nop			; (mov r8, r8)
 8002274:	40012c00 	.word	0x40012c00
 8002278:	40014400 	.word	0x40014400
 800227c:	40014800 	.word	0x40014800
 8002280:	40000400 	.word	0x40000400

08002284 <HAL_TIM_PWM_Start>:
 8002284:	b510      	push	{r4, lr}
 8002286:	f7ff ffb3 	bl	80021f0 <HAL_TIM_OC_Start>
 800228a:	bd10      	pop	{r4, pc}

0800228c <HAL_TIMEx_MasterConfigSynchronization>:
 800228c:	b570      	push	{r4, r5, r6, lr}
 800228e:	0004      	movs	r4, r0
 8002290:	2202      	movs	r2, #2
 8002292:	343c      	adds	r4, #60	; 0x3c
 8002294:	7825      	ldrb	r5, [r4, #0]
 8002296:	0003      	movs	r3, r0
 8002298:	0010      	movs	r0, r2
 800229a:	2d01      	cmp	r5, #1
 800229c:	d019      	beq.n	80022d2 <HAL_TIMEx_MasterConfigSynchronization+0x46>
 800229e:	001d      	movs	r5, r3
 80022a0:	2670      	movs	r6, #112	; 0x70
 80022a2:	353d      	adds	r5, #61	; 0x3d
 80022a4:	702a      	strb	r2, [r5, #0]
 80022a6:	681b      	ldr	r3, [r3, #0]
 80022a8:	6858      	ldr	r0, [r3, #4]
 80022aa:	689a      	ldr	r2, [r3, #8]
 80022ac:	43b0      	bics	r0, r6
 80022ae:	680e      	ldr	r6, [r1, #0]
 80022b0:	4330      	orrs	r0, r6
 80022b2:	6058      	str	r0, [r3, #4]
 80022b4:	4807      	ldr	r0, [pc, #28]	; (80022d4 <HAL_TIMEx_MasterConfigSynchronization+0x48>)
 80022b6:	4283      	cmp	r3, r0
 80022b8:	d002      	beq.n	80022c0 <HAL_TIMEx_MasterConfigSynchronization+0x34>
 80022ba:	4807      	ldr	r0, [pc, #28]	; (80022d8 <HAL_TIMEx_MasterConfigSynchronization+0x4c>)
 80022bc:	4283      	cmp	r3, r0
 80022be:	d104      	bne.n	80022ca <HAL_TIMEx_MasterConfigSynchronization+0x3e>
 80022c0:	2080      	movs	r0, #128	; 0x80
 80022c2:	6849      	ldr	r1, [r1, #4]
 80022c4:	4382      	bics	r2, r0
 80022c6:	430a      	orrs	r2, r1
 80022c8:	609a      	str	r2, [r3, #8]
 80022ca:	2301      	movs	r3, #1
 80022cc:	2000      	movs	r0, #0
 80022ce:	702b      	strb	r3, [r5, #0]
 80022d0:	7020      	strb	r0, [r4, #0]
 80022d2:	bd70      	pop	{r4, r5, r6, pc}
 80022d4:	40012c00 	.word	0x40012c00
 80022d8:	40000400 	.word	0x40000400

080022dc <HAL_TIMEx_ConfigBreakDeadTime>:
 80022dc:	b510      	push	{r4, lr}
 80022de:	0004      	movs	r4, r0
 80022e0:	343c      	adds	r4, #60	; 0x3c
 80022e2:	7823      	ldrb	r3, [r4, #0]
 80022e4:	0002      	movs	r2, r0
 80022e6:	2002      	movs	r0, #2
 80022e8:	2b01      	cmp	r3, #1
 80022ea:	d01c      	beq.n	8002326 <HAL_TIMEx_ConfigBreakDeadTime+0x4a>
 80022ec:	68c8      	ldr	r0, [r1, #12]
 80022ee:	4b0e      	ldr	r3, [pc, #56]	; (8002328 <HAL_TIMEx_ConfigBreakDeadTime+0x4c>)
 80022f0:	6812      	ldr	r2, [r2, #0]
 80022f2:	4003      	ands	r3, r0
 80022f4:	6888      	ldr	r0, [r1, #8]
 80022f6:	4303      	orrs	r3, r0
 80022f8:	480c      	ldr	r0, [pc, #48]	; (800232c <HAL_TIMEx_ConfigBreakDeadTime+0x50>)
 80022fa:	4003      	ands	r3, r0
 80022fc:	6848      	ldr	r0, [r1, #4]
 80022fe:	4303      	orrs	r3, r0
 8002300:	480b      	ldr	r0, [pc, #44]	; (8002330 <HAL_TIMEx_ConfigBreakDeadTime+0x54>)
 8002302:	4003      	ands	r3, r0
 8002304:	6808      	ldr	r0, [r1, #0]
 8002306:	4303      	orrs	r3, r0
 8002308:	480a      	ldr	r0, [pc, #40]	; (8002334 <HAL_TIMEx_ConfigBreakDeadTime+0x58>)
 800230a:	4003      	ands	r3, r0
 800230c:	6908      	ldr	r0, [r1, #16]
 800230e:	4303      	orrs	r3, r0
 8002310:	4809      	ldr	r0, [pc, #36]	; (8002338 <HAL_TIMEx_ConfigBreakDeadTime+0x5c>)
 8002312:	4003      	ands	r3, r0
 8002314:	6948      	ldr	r0, [r1, #20]
 8002316:	69c9      	ldr	r1, [r1, #28]
 8002318:	4303      	orrs	r3, r0
 800231a:	4808      	ldr	r0, [pc, #32]	; (800233c <HAL_TIMEx_ConfigBreakDeadTime+0x60>)
 800231c:	4003      	ands	r3, r0
 800231e:	2000      	movs	r0, #0
 8002320:	430b      	orrs	r3, r1
 8002322:	6453      	str	r3, [r2, #68]	; 0x44
 8002324:	7020      	strb	r0, [r4, #0]
 8002326:	bd10      	pop	{r4, pc}
 8002328:	fffffcff 	.word	0xfffffcff
 800232c:	fffffbff 	.word	0xfffffbff
 8002330:	fffff7ff 	.word	0xfffff7ff
 8002334:	ffffefff 	.word	0xffffefff
 8002338:	ffffdfff 	.word	0xffffdfff
 800233c:	ffffbfff 	.word	0xffffbfff

08002340 <HAL_TIMEx_CommutCallback>:
 8002340:	4770      	bx	lr

08002342 <HAL_TIMEx_BreakCallback>:
 8002342:	4770      	bx	lr

08002344 <__libc_init_array>:
 8002344:	b570      	push	{r4, r5, r6, lr}
 8002346:	2600      	movs	r6, #0
 8002348:	4d0c      	ldr	r5, [pc, #48]	; (800237c <__libc_init_array+0x38>)
 800234a:	4c0d      	ldr	r4, [pc, #52]	; (8002380 <__libc_init_array+0x3c>)
 800234c:	1b64      	subs	r4, r4, r5
 800234e:	10a4      	asrs	r4, r4, #2
 8002350:	42a6      	cmp	r6, r4
 8002352:	d109      	bne.n	8002368 <__libc_init_array+0x24>
 8002354:	2600      	movs	r6, #0
 8002356:	f000 f82b 	bl	80023b0 <_init>
 800235a:	4d0a      	ldr	r5, [pc, #40]	; (8002384 <__libc_init_array+0x40>)
 800235c:	4c0a      	ldr	r4, [pc, #40]	; (8002388 <__libc_init_array+0x44>)
 800235e:	1b64      	subs	r4, r4, r5
 8002360:	10a4      	asrs	r4, r4, #2
 8002362:	42a6      	cmp	r6, r4
 8002364:	d105      	bne.n	8002372 <__libc_init_array+0x2e>
 8002366:	bd70      	pop	{r4, r5, r6, pc}
 8002368:	00b3      	lsls	r3, r6, #2
 800236a:	58eb      	ldr	r3, [r5, r3]
 800236c:	4798      	blx	r3
 800236e:	3601      	adds	r6, #1
 8002370:	e7ee      	b.n	8002350 <__libc_init_array+0xc>
 8002372:	00b3      	lsls	r3, r6, #2
 8002374:	58eb      	ldr	r3, [r5, r3]
 8002376:	4798      	blx	r3
 8002378:	3601      	adds	r6, #1
 800237a:	e7f2      	b.n	8002362 <__libc_init_array+0x1e>
 800237c:	08002408 	.word	0x08002408
 8002380:	08002408 	.word	0x08002408
 8002384:	08002408 	.word	0x08002408
 8002388:	0800240c 	.word	0x0800240c

0800238c <memcpy>:
 800238c:	2300      	movs	r3, #0
 800238e:	b510      	push	{r4, lr}
 8002390:	429a      	cmp	r2, r3
 8002392:	d100      	bne.n	8002396 <memcpy+0xa>
 8002394:	bd10      	pop	{r4, pc}
 8002396:	5ccc      	ldrb	r4, [r1, r3]
 8002398:	54c4      	strb	r4, [r0, r3]
 800239a:	3301      	adds	r3, #1
 800239c:	e7f8      	b.n	8002390 <memcpy+0x4>

0800239e <memset>:
 800239e:	0003      	movs	r3, r0
 80023a0:	1882      	adds	r2, r0, r2
 80023a2:	4293      	cmp	r3, r2
 80023a4:	d100      	bne.n	80023a8 <memset+0xa>
 80023a6:	4770      	bx	lr
 80023a8:	7019      	strb	r1, [r3, #0]
 80023aa:	3301      	adds	r3, #1
 80023ac:	e7f9      	b.n	80023a2 <memset+0x4>
	...

080023b0 <_init>:
 80023b0:	b5f8      	push	{r3, r4, r5, r6, r7, lr}
 80023b2:	46c0      	nop			; (mov r8, r8)
 80023b4:	bcf8      	pop	{r3, r4, r5, r6, r7}
 80023b6:	bc08      	pop	{r3}
 80023b8:	469e      	mov	lr, r3
 80023ba:	4770      	bx	lr

080023bc <_fini>:
 80023bc:	b5f8      	push	{r3, r4, r5, r6, r7, lr}
 80023be:	46c0      	nop			; (mov r8, r8)
 80023c0:	bcf8      	pop	{r3, r4, r5, r6, r7}
 80023c2:	bc08      	pop	{r3}
 80023c4:	469e      	mov	lr, r3
 80023c6:	4770      	bx	lr
